(dp1
S'lrate'
p2
F0.0040000000000000001
sS'optimizer'
p3
S'adadelta'
p4
sS'verbose'
p5
I00
sS'dictionary'
p6
S'../../data/word_sequence/vocab_cased.pkl'
p7
sS'n_words'
p8
I2260
sS'batch_size'
p9
I32
sS'decay_c'
p10
F0
sS'patience'
p11
I3
sS'decoder'
p12
S'lstm'
p13
sS'valid_datasets'
p14
(lp15
S'../../data/word_sequence/premise_SICK_trial.txt.tok'
p16
aS'../../data/word_sequence/hypothesis_SICK_trial.txt.tok'
p17
aS'../../data/word_sequence/label_SICK_trial.txt'
p18
asS'max_epochs'
p19
I5000
sS'dispFreq'
p20
I10
sS'encoder'
p21
g13
sS'validFreq'
p22
I1000
sS'dim'
p23
I300
sS'use_dropout'
p24
I01
sS'datasets'
p25
(lp26
S'../../data/word_sequence/premise_SICK_train.txt.tok'
p27
aS'../../data/word_sequence/hypothesis_SICK_train.txt.tok'
p28
aS'../../data/word_sequence/label_SICK_train.txt'
p29
asS'dim_word'
p30
I300
sS'test_datasets'
p31
(lp32
S'../../data/word_sequence/premise_SICK_test_annotated.txt.tok'
p33
aS'../../data/word_sequence/hypothesis_SICK_test_annotated.txt.tok'
p34
aS'../../data/word_sequence/label_SICK_test_annotated.txt'
p35
asS'finish_after'
p36
I10000000
sS'clip_c'
p37
F10
sS'saveFreq'
p38
I1000
sS'maxlen'
p39
I100
sS'saveto'
p40
S'./sent_enc_nli.npz'
p41
sS'embedding'
p42
S''
sS'valid_batch_size'
p43
I32
sS'reload_'
p44
I00
s.