ccollections
OrderedDict
p1
((lp2
(lp3
S'_EOS_'
p4
aI0
aa(lp5
S'_OOV_'
p6
aI1
aa(lp7
S'is'
p8
aI2
aa(lp9
S'a'
aI3
aa(lp10
S'A'
aI4
aa(lp11
S'the'
p12
aI5
aa(lp13
S'man'
p14
aI6
aa(lp15
S'in'
p16
aI7
aa(lp17
S'and'
p18
aI8
aa(lp19
S'are'
p20
aI9
aa(lp21
S'on'
p22
aI10
aa(lp23
S'The'
p24
aI11
aa(lp25
S'woman'
p26
aI12
aa(lp27
S'of'
p28
aI13
aa(lp29
S'playing'
p30
aI14
aa(lp31
S'dog'
p32
aI15
aa(lp33
S'with'
p34
aI16
aa(lp35
S'no'
p36
aI17
aa(lp37
S'by'
p38
aI18
aa(lp39
S'Two'
p40
aI19
aa(lp41
S'There'
p42
aI20
aa(lp43
S'person'
p44
aI21
aa(lp45
S'being'
p46
aI22
aa(lp47
S'standing'
p48
aI23
aa(lp49
S'boy'
p50
aI24
aa(lp51
S'at'
p52
aI25
aa(lp53
S'wearing'
p54
aI26
aa(lp55
S'girl'
p56
aI27
aa(lp57
S'white'
p58
aI28
aa(lp59
S'running'
p60
aI29
aa(lp61
S'black'
p62
aI30
aa(lp63
S'an'
p64
aI31
aa(lp65
S'sitting'
p66
aI32
aa(lp67
S'water'
p68
aI33
aa(lp69
S'into'
p70
aI34
aa(lp71
S'jumping'
p72
aI35
aa(lp73
S'riding'
p74
aI36
aa(lp75
S'people'
p76
aI37
aa(lp77
S'brown'
p78
aI38
aa(lp79
S'not'
p80
aI39
aa(lp81
S'guitar'
p82
aI40
aa(lp83
S'walking'
p84
aI41
aa(lp85
S'young'
p86
aI42
aa(lp87
S'ball'
p88
aI43
aa(lp89
S'to'
p90
aI44
aa(lp91
S'grass'
p92
aI45
aa(lp93
S'red'
p94
aI46
aa(lp95
S'looking'
p96
aI47
aa(lp97
S'men'
p98
aI48
aa(lp99
S'blue'
p100
aI49
aa(lp101
S'through'
p102
aI50
aa(lp103
S'cutting'
p104
aI51
aa(lp105
S'dancing'
p106
aI52
aa(lp107
S'slicing'
p108
aI53
aa(lp109
S'near'
p110
aI54
aa(lp111
S'some'
p112
aI55
aa(lp113
S'holding'
p114
aI56
aa(lp115
S'front'
p116
aI57
aa(lp117
S'down'
p118
aI58
aa(lp119
S'bike'
p120
aI59
aa(lp121
S'green'
p122
aI60
aa(lp123
S'little'
p124
aI61
aa(lp125
S'group'
p126
aI62
aa(lp127
S'shirt'
p128
aI63
aa(lp129
S'child'
p130
aI64
aa(lp131
S'for'
p132
aI65
aa(lp133
S'small'
p134
aI66
aa(lp135
S'which'
p136
aI67
aa(lp137
S'horse'
p138
aI68
aa(lp139
S'dogs'
p140
aI69
aa(lp141
S'up'
p142
aI70
aa(lp143
S'from'
p144
aI71
aa(lp145
S'cat'
p146
aI72
aa(lp147
S'car'
p148
aI73
aa(lp149
S'beach'
p150
aI74
aa(lp151
S'over'
p152
aI75
aa(lp153
S'large'
p154
aI76
aa(lp155
S'yellow'
p156
aI77
aa(lp157
S'Some'
p158
aI78
aa(lp159
S'its'
p160
aI79
aa(lp161
S'hat'
p162
aI80
aa(lp163
S'children'
p164
aI81
aa(lp165
S'snow'
p166
aI82
aa(lp167
S'his'
p168
aI83
aa(lp169
S'eating'
p170
aI84
aa(lp171
S'two'
p172
aI85
aa(lp173
S'that'
p174
aI86
aa(lp175
S'air'
p176
aI87
aa(lp177
S'singing'
p178
aI88
aa(lp179
S'her'
p180
aI89
aa(lp181
S'putting'
p182
aI90
aa(lp183
S'onion'
p184
aI91
aa(lp185
S'camera'
p186
aI92
aa(lp187
S'Someone'
p188
aI93
aa(lp189
S'An'
p190
aI94
aa(lp191
S'off'
p192
aI95
aa(lp193
S'bowl'
p194
aI96
aa(lp195
S'who'
p196
aI97
aa(lp197
S'climbing'
p198
aI98
aa(lp199
S'potato'
p200
aI99
aa(lp201
S'field'
p202
aI100
aa(lp203
S'wall'
p204
aI101
aa(lp205
S'boys'
p206
aI102
aa(lp207
S'outside'
p208
aI103
aa(lp209
S'doing'
p210
aI104
aa(lp211
S'lady'
p212
aI105
aa(lp213
S'one'
p214
aI106
aa(lp215
S'soccer'
p216
aI107
aa(lp217
S'Three'
p218
aI108
aa(lp219
S'flute'
p220
aI109
aa(lp221
S'dirt'
p222
aI110
aa(lp223
S'tree'
p224
aI111
aa(lp225
S'baby'
p226
aI112
aa(lp227
S'One'
p228
aI113
aa(lp229
S'another'
p230
aI114
aa(lp231
S'street'
p232
aI115
aa(lp233
S'motorcycle'
p234
aI116
aa(lp235
S'other'
p236
aI117
aa(lp237
S'bicycle'
p238
aI118
aa(lp239
S'piano'
p240
aI119
aa(lp241
S'park'
p242
aI120
aa(lp243
S'next'
p244
aI121
aa(lp245
S'rope'
p246
aI122
aa(lp247
S'women'
p248
aI123
aa(lp249
S'around'
p250
aI124
aa(lp251
S'talking'
p252
aI125
aa(lp253
S'kids'
p254
aI126
aa(lp255
S'eggs'
p256
aI127
aa(lp257
S'road'
p258
aI128
aa(lp259
S'out'
p260
aI129
aa(lp261
S'rock'
p262
aI130
aa(lp263
S'lying'
p264
aI131
aa(lp265
S'mouth'
p266
aI132
aa(lp267
S'swimming'
p268
aI133
aa(lp269
S'pink'
p270
aI134
aa(lp271
S'played'
p272
aI135
aa(lp273
S'toy'
p274
aI136
aa(lp275
S'pool'
p276
aI137
aa(lp277
S'across'
p278
aI138
aa(lp279
S'jacket'
p280
aI139
aa(lp281
S'purple'
p282
aI140
aa(lp283
S'kid'
p284
aI141
aa(lp285
S'hill'
p286
aI142
aa(lp287
S'performing'
p288
aI143
aa(lp289
S'carrying'
p290
aI144
aa(lp291
S'player'
p292
aI145
aa(lp293
S'pot'
p294
aI146
aa(lp295
S'football'
p296
aI147
aa(lp297
S'behind'
p298
aI148
aa(lp299
S'fighting'
p300
aI149
aa(lp301
S'meat'
p302
aI150
aa(lp303
S'chasing'
p304
aI151
aa(lp305
S'hair'
p306
aI152
aa(lp307
S'watching'
p308
aI153
aa(lp309
S'trick'
p310
aI154
aa(lp311
S'People'
p312
aI155
aa(lp313
S'taking'
p314
aI156
aa(lp315
S'tennis'
p316
aI157
aa(lp317
S'along'
p318
aI158
aa(lp319
S'table'
p320
aI159
aa(lp321
S"isn't"
p322
aI160
aa(lp323
S'race'
p324
aI161
aa(lp325
S'track'
p326
aI162
aa(lp327
S'big'
p328
aI163
aa(lp329
S'ground'
p330
aI164
aa(lp331
S'animal'
p332
aI165
aa(lp333
S'ocean'
p334
aI166
aa(lp335
S'sand'
p336
aI167
aa(lp337
S'top'
p338
aI168
aa(lp339
S'peeling'
p340
aI169
aa(lp341
S'chopping'
p342
aI170
aa(lp343
S'rocky'
p344
aI171
aa(lp345
S'Four'
p346
aI172
aa(lp347
S'crowd'
p348
aI173
aa(lp349
S'hand'
p350
aI174
aa(lp351
S'has'
p352
aI175
aa(lp353
S'area'
p354
aI176
aa(lp355
S'keyboard'
p356
aI177
aa(lp357
S'bridge'
p358
aI178
aa(lp359
S'colored'
p360
aI179
aa(lp361
S'dressed'
p362
aI180
aa(lp363
S'posing'
p364
aI181
aa(lp365
S'made'
p366
aI182
aa(lp367
S'pouring'
p368
aI183
aa(lp369
S'outdoors'
p370
aI184
aa(lp371
S'each'
p372
aI185
aa(lp373
S'orange'
p374
aI186
aa(lp375
S'racing'
p376
aI187
aa(lp377
S'together'
p378
aI188
aa(lp379
S'driving'
p380
aI189
aa(lp381
S'beside'
p382
aI190
aa(lp383
S'making'
p384
aI191
aa(lp385
S'food'
p386
aI192
aa(lp387
S'fish'
p388
aI193
aa(lp389
S'girls'
p390
aI194
aa(lp391
S'stage'
p392
aI195
aa(lp393
S'hands'
p394
aI196
aa(lp395
S'piece'
p396
aI197
aa(lp397
S'full'
p398
aI198
aa(lp399
S'river'
p400
aI199
aa(lp401
S'covered'
p402
aI200
aa(lp403
S'drinking'
p404
aI201
aa(lp405
S'snowy'
p406
aI202
aa(lp407
S'city'
p408
aI203
aa(lp409
S'sidewalk'
p410
aI204
aa(lp411
S'sunglasses'
p412
aI205
aa(lp413
S'uniform'
p414
aI206
aa(lp415
S'monkey'
p416
aI207
aa(lp417
S'smiling'
p418
aI208
aa(lp419
S'game'
p420
aI209
aa(lp421
S'light'
p422
aI210
aa(lp423
S'coat'
p424
aI211
aa(lp425
S'building'
p426
aI212
aa(lp427
S'rocks'
p428
aI213
aa(lp429
S'away'
p430
aI214
aa(lp431
S'catching'
p432
aI215
aa(lp433
S'colorful'
p434
aI216
aa(lp435
S'getting'
p436
aI217
aa(lp437
S'rider'
p438
aI218
aa(lp439
S'face'
p440
aI219
aa(lp441
S'tomato'
p442
aI220
aa(lp443
S'yard'
p444
aI221
aa(lp445
S'background'
p446
aI222
aa(lp447
S'bench'
p448
aI223
aa(lp449
S'pulling'
p450
aI224
aa(lp451
S'bird'
p452
aI225
aa(lp453
S'oil'
p454
aI226
aa(lp455
S'rolling'
p456
aI227
aa(lp457
S'sliced'
p458
aI228
aa(lp459
S'garlic'
p460
aI229
aa(lp461
S'ridden'
p462
aI230
aa(lp463
S'carrot'
p464
aI231
aa(lp465
S'helmet'
p466
aI232
aa(lp467
S'frying'
p468
aI233
aa(lp469
S'pan'
p470
aI234
aa(lp471
S'throwing'
p472
aI235
aa(lp473
S'grey'
p474
aI236
aa(lp475
S'side'
p476
aI237
aa(lp477
S'knife'
p478
aI238
aa(lp479
S'cut'
p480
aI239
aa(lp481
S'inside'
p482
aI240
aa(lp483
S'room'
p484
aI241
aa(lp485
S'wood'
p486
aI242
aa(lp487
S'butter'
p488
aI243
aa(lp489
S'Nobody'
p490
aI244
aa(lp491
S'kicking'
p492
aI245
aa(lp493
S'cooking'
p494
aI246
aa(lp495
S'stirring'
p496
aI247
aa(lp497
S'pieces'
p498
aI248
aa(lp499
S'opening'
p500
aI249
aa(lp501
S'against'
p502
aI250
aa(lp503
S'leaves'
p504
aI251
aa(lp505
S'drawing'
p506
aI252
aa(lp507
S'wooden'
p508
aI253
aa(lp509
S'motorbike'
p510
aI254
aa(lp511
S'bread'
p512
aI255
aa(lp513
S'box'
p514
aI256
aa(lp515
S'gun'
p516
aI257
aa(lp517
S'dog,'
p518
aI258
aa(lp519
S'sandy'
p520
aI259
aa(lp521
S'waterfall'
p522
aI260
aa(lp523
S'Several'
p524
aI261
aa(lp525
S'laughing'
p526
aI262
aa(lp527
S'sign'
p528
aI263
aa(lp529
S'lake'
p530
aI264
aa(lp531
S'them'
p532
aI265
aa(lp533
S'onto'
p534
aI266
aa(lp535
S'machine'
p536
aI267
aa(lp537
S'phone'
p538
aI268
aa(lp539
S'something'
p540
aI269
aa(lp541
S'striped'
p542
aI270
aa(lp543
S'under'
p544
aI271
aa(lp545
S'pants'
p546
aI272
aa(lp547
S'shirtless'
p548
aI273
aa(lp549
S'container'
p550
aI274
aa(lp551
S'flying'
p552
aI275
aa(lp553
S'mountain'
p554
aI276
aa(lp555
S'lawn'
p556
aI277
aa(lp557
S'trunk'
p558
aI278
aa(lp559
S'path'
p560
aI279
aa(lp561
S'mud'
p562
aI280
aa(lp563
S'boiling'
p564
aI281
aa(lp565
S'cracking'
p566
aI282
aa(lp567
S'it'
p568
aI283
aa(lp569
S'using'
p570
aI284
aa(lp571
S'milk'
p572
aI285
aa(lp573
S'instrument'
p574
aI286
aa(lp575
S'three'
p576
aI287
aa(lp577
S'paper'
p578
aI288
aa(lp579
S'their'
p580
aI289
aa(lp581
S'reading'
p582
aI290
aa(lp583
S'quickly'
p584
aI291
aa(lp585
S'goal'
p586
aI292
aa(lp587
S'body'
p588
aI293
aa(lp589
S'sword'
p590
aI294
aa(lp591
S'bottle'
p592
aI295
aa(lp593
S'tiger'
p594
aI296
aa(lp595
S'surfer'
p596
aI297
aa(lp597
S'fence'
p598
aI298
aa(lp599
S'high'
p600
aI299
aa(lp601
S'dress'
p602
aI300
aa(lp603
S'gear'
p604
aI301
aa(lp605
S'back'
p606
aI302
aa(lp607
S'leaning'
p608
aI303
aa(lp609
S'wave'
p610
aI304
aa(lp611
S'stone'
p612
aI305
aa(lp613
S'old'
p614
aI306
aa(lp615
S'head'
p616
aI307
aa(lp617
S'players'
p618
aI308
aa(lp619
S'tan'
p620
aI309
aa(lp621
S'couch'
p622
aI310
aa(lp623
S'mixing'
p624
aI311
aa(lp625
S'waiting'
p626
aI312
aa(lp627
S'violin'
p628
aI313
aa(lp629
S'falling'
p630
aI314
aa(lp631
S'Asian'
p632
aI315
aa(lp633
S'dyed'
p634
aI316
aa(lp635
S'ice'
p636
aI317
aa(lp637
S'splashing'
p638
aI318
aa(lp639
S'jump'
p640
aI319
aa(lp641
S'banana'
p642
aI320
aa(lp643
S'calendar'
p644
aI321
aa(lp645
S'cyclist'
p646
aI322
aa(lp647
S'plastic'
p648
aI323
aa(lp649
S'forest'
p650
aI324
aa(lp651
S'panda'
p652
aI325
aa(lp653
S'blond'
p654
aI326
aa(lp655
S'golden'
p656
aI327
aa(lp657
S'rhino'
p658
aI328
aa(lp659
S'Five'
p660
aI329
aa(lp661
S'grassy'
p662
aI330
aa(lp663
S'pencil'
p664
aI331
aa(lp665
S'fountain'
p666
aI332
aa(lp667
S'shorts'
p668
aI333
aa(lp669
S'jersey'
p670
aI334
aa(lp671
S'clothes'
p672
aI335
aa(lp673
S'practicing'
p674
aI336
aa(lp675
S'sliding'
p676
aI337
aa(lp677
S'ceiling'
p678
aI338
aa(lp679
S'pushing'
p680
aI339
aa(lp681
S'lot'
p682
aI340
aa(lp683
S'family'
p684
aI341
aa(lp685
S'stick'
p686
aI342
aa(lp687
S'slide'
p688
aI343
aa(lp689
S'resting'
p690
aI344
aa(lp691
S'cheese'
p692
aI345
aa(lp693
S'jeep'
p694
aI346
aa(lp695
S'puddle'
p696
aI347
aa(lp697
S'couple'
p698
aI348
aa(lp699
S'bag'
p700
aI349
aa(lp701
S'parking'
p702
aI350
aa(lp703
S'picking'
p704
aI351
aa(lp705
S'going'
p706
aI352
aa(lp707
S'trampoline'
p708
aI353
aa(lp709
S'trees'
p710
aI354
aa(lp711
S'speaking'
p712
aI355
aa(lp713
S'still'
p714
aI356
aa(lp715
S'guy'
p716
aI357
aa(lp717
S'bikers'
p718
aI358
aa(lp719
S'onions'
p720
aI359
aa(lp721
S'biting'
p722
aI360
aa(lp723
S'between'
p724
aI361
aa(lp725
S'vegetables'
p726
aI362
aa(lp727
S'dark'
p728
aI363
aa(lp729
S'pointing'
p730
aI364
aa(lp731
S'paint'
p732
aI365
aa(lp733
S'floor'
p734
aI366
aa(lp735
S'tall'
p736
aI367
aa(lp737
S'suit'
p738
aI368
aa(lp739
S'ramp'
p740
aI369
aa(lp741
S'pizza'
p742
aI370
aa(lp743
S'snowboarder'
p744
aI371
aa(lp745
S'waves'
p746
aI372
aa(lp747
S'arms'
p748
aI373
aa(lp749
S'bikini'
p750
aI374
aa(lp751
S'snake'
p752
aI375
aa(lp753
S'surfboard'
p754
aI376
aa(lp755
S'ingredients'
p756
aI377
aa(lp757
S'bicyclist'
p758
aI378
aa(lp759
S'scooter'
p760
aI379
aa(lp761
S'noodles'
p762
aI380
aa(lp763
S'few'
p764
aI381
aa(lp765
S'makeup'
p766
aI382
aa(lp767
S'crowded'
p768
aI383
aa(lp769
S'statue'
p770
aI384
aa(lp771
S'close'
p772
aI385
aa(lp773
S'gray'
p774
aI386
aa(lp775
S'train'
p776
aI387
aa(lp777
S'writing'
p778
aI388
aa(lp779
S'skateboard'
p780
aI389
aa(lp781
S'landing'
p782
aI390
aa(lp783
S'leaping'
p784
aI391
aa(lp785
S'removing'
p786
aI392
aa(lp787
S'chair'
p788
aI393
aa(lp789
S'costumes'
p790
aI394
aa(lp791
S'nose'
p792
aI395
aa(lp793
S'break'
p794
aI396
aa(lp795
S'band'
p796
aI397
aa(lp797
S'egg'
p798
aI398
aa(lp799
S'day'
p800
aI399
aa(lp801
S'edge'
p802
aI400
aa(lp803
S'tail'
p804
aI401
aa(lp805
S'bed'
p806
aI402
aa(lp807
S'preparing'
p808
aI403
aa(lp809
S'uniforms'
p810
aI404
aa(lp811
S'carefully'
p812
aI405
aa(lp813
S'rain'
p814
aI406
aa(lp815
S't-shirt'
p816
aI407
aa(lp817
S'surrounded'
p818
aI408
aa(lp819
S'cleaning'
p820
aI409
aa(lp821
S'ears'
p822
aI410
aa(lp823
S'mushrooms'
p824
aI411
aa(lp825
S'soda'
p826
aI412
aa(lp827
S'father'
p828
aI413
aa(lp829
S'held'
p830
aI414
aa(lp831
S'motocross'
p832
aI415
aa(lp833
S'fur'
p834
aI416
aa(lp835
S'surfing'
p836
aI417
aa(lp837
S'skating'
p838
aI418
aa(lp839
S'adults'
p840
aI419
aa(lp841
S'fishing'
p842
aI420
aa(lp843
S'slowly'
p844
aI421
aa(lp845
S'happily'
p846
aI422
aa(lp847
S'seasoning'
p848
aI423
aa(lp849
S'crouching'
p850
aI424
aa(lp851
S'deer'
p852
aI425
aa(lp853
S'wheel'
p854
aI426
aa(lp855
S'very'
p856
aI427
aa(lp857
S'biker'
p858
aI428
aa(lp859
S'suitcases'
p860
aI429
aa(lp861
S'cheerleaders'
p862
aI430
aa(lp863
S'wheelie'
p864
aI431
aa(lp865
S'ledge'
p866
aI432
aa(lp867
S'trail'
p868
aI433
aa(lp869
S'hanging'
p870
aI434
aa(lp871
S'jeans'
p872
aI435
aa(lp873
S'cage'
p874
aI436
aa(lp875
S'wet'
p876
aI437
aa(lp877
S'after'
p878
aI438
aa(lp879
S'airborne'
p880
aI439
aa(lp881
S'cliff'
p882
aI440
aa(lp883
S'dropping'
p884
aI441
aa(lp885
S'bmx'
p886
aI442
aa(lp887
S'umbrella'
p888
aI443
aa(lp889
S'kangaroo'
p890
aI444
aa(lp891
S'view'
p892
aI445
aa(lp893
S'funny'
p894
aI446
aa(lp895
S'drums'
p896
aI447
aa(lp897
S'microphone'
p898
aI448
aa(lp899
S'No'
p900
aI449
aa(lp901
S'can'
p902
aI450
aa(lp903
S'dicing'
p904
aI451
aa(lp905
S'pond'
p906
aI452
aa(lp907
S'dirty'
p908
aI453
aa(lp909
S'door'
p910
aI454
aa(lp911
S'picture'
p912
aI455
aa(lp913
S'cats'
p914
aI456
aa(lp915
S'axe'
p916
aI457
aa(lp917
S'muddy'
p918
aI458
aa(lp919
S'glasses'
p920
aI459
aa(lp921
S'frog'
p922
aI460
aa(lp923
S'harp'
p924
aI461
aa(lp925
S'email'
p926
aI462
aa(lp927
S'officer'
p928
aI463
aa(lp929
S'clouds'
p930
aI464
aa(lp931
S'sky'
p932
aI465
aa(lp933
S'showing'
p934
aI466
aa(lp935
S'slices'
p936
aI467
aa(lp937
S'boat'
p938
aI468
aa(lp939
S'clothing'
p940
aI469
aa(lp941
S'shaking'
p942
aI470
aa(lp943
S'moving'
p944
aI471
aa(lp945
S'window'
p946
aI472
aa(lp947
S'recklessly'
p948
aI473
aa(lp949
S'both'
p950
aI474
aa(lp951
S'pen'
p952
aI475
aa(lp953
S'bamboo'
p954
aI476
aa(lp955
S'barking'
p956
aI477
aa(lp957
S'octopus'
p958
aI478
aa(lp959
S'beads'
p960
aI479
aa(lp961
S'structure'
p962
aI480
aa(lp963
S'cowboy'
p964
aI481
aa(lp965
S'staring'
p966
aI482
aa(lp967
S'bunny'
p968
aI483
aa(lp969
S'okra'
p970
aI484
aa(lp971
S'crossing'
p972
aI485
aa(lp973
S'roof'
p974
aI486
aa(lp975
S'mouse'
p976
aI487
aa(lp977
S'swing'
p978
aI488
aa(lp979
S'pork'
p980
aI489
aa(lp981
S'legs'
p982
aI490
aa(lp983
S'skillet'
p984
aI491
aa(lp985
S'blanket'
p986
aI492
aa(lp987
S'cars'
p988
aI493
aa(lp989
S'shore'
p990
aI494
aa(lp991
S'leather'
p992
aI495
aa(lp993
S'breaking'
p994
aI496
aa(lp995
S'lounging'
p996
aI497
aa(lp997
S'sticking'
p998
aI498
aa(lp999
S'leash'
p1000
aI499
aa(lp1001
S'empty'
p1002
aI500
aa(lp1003
S'baseball'
p1004
aI501
aa(lp1005
S'black,'
p1006
aI502
aa(lp1007
S'operating'
p1008
aI503
aa(lp1009
S'trumpet'
p1010
aI504
aa(lp1011
S'keyboards'
p1012
aI505
aa(lp1013
S'raising'
p1014
aI506
aa(lp1015
S'snowboarding'
p1016
aI507
aa(lp1017
S'tossing'
p1018
aI508
aa(lp1019
S'leaving'
p1020
aI509
aa(lp1021
S'puppy'
p1022
aI510
aa(lp1023
S'sunny'
p1024
aI511
aa(lp1025
S'cow'
p1026
aI512
aa(lp1027
S'bride'
p1028
aI513
aa(lp1029
S'licking'
p1030
aI514
aa(lp1031
S'bull'
p1032
aI515
aa(lp1033
S'hitting'
p1034
aI516
aa(lp1035
S'clown'
p1036
aI517
aa(lp1037
S'bouncing'
p1038
aI518
aa(lp1039
S'shallow'
p1040
aI519
aa(lp1041
S'night'
p1042
aI520
aa(lp1043
S'mowing'
p1044
aI521
aa(lp1045
S'crocodile'
p1046
aI522
aa(lp1047
S'electronic'
p1048
aI523
aa(lp1049
S'recruits'
p1050
aI524
aa(lp1051
S'nail'
p1052
aI525
aa(lp1053
S'restaurant'
p1054
aI526
aa(lp1055
S'tables'
p1056
aI527
aa(lp1057
S'oriental'
p1058
aI528
aa(lp1059
S'strip'
p1060
aI529
aa(lp1061
S'bunch'
p1062
aI530
aa(lp1063
S'electric'
p1064
aI531
aa(lp1065
S'swim'
p1066
aI532
aa(lp1067
S'net'
p1068
aI533
aa(lp1069
S'chop'
p1070
aI534
aa(lp1071
S"man's"
p1072
aI535
aa(lp1073
S'students'
p1074
aI536
aa(lp1075
S'house'
p1076
aI537
aa(lp1077
S'tricks'
p1078
aI538
aa(lp1079
S'biking'
p1080
aI539
aa(lp1081
S'chef'
p1082
aI540
aa(lp1083
S'topless'
p1084
aI541
aa(lp1085
S'used'
p1086
aI542
aa(lp1087
S'blonde'
p1088
aI543
aa(lp1089
S'kittens'
p1090
aI544
aa(lp1091
S'teenage'
p1092
aI545
aa(lp1093
S'peeled'
p1094
aI546
aa(lp1095
S'tapping'
p1096
aI547
aa(lp1097
S'kitten'
p1098
aI548
aa(lp1099
S'lemur'
p1100
aI549
aa(lp1101
S'sun'
p1102
aI550
aa(lp1103
S'eaten'
p1104
aI551
aa(lp1105
S'knocking'
p1106
aI552
aa(lp1107
S'seated'
p1108
aI553
aa(lp1109
S'long'
p1110
aI554
aa(lp1111
S'built'
p1112
aI555
aa(lp1113
S'hiking'
p1114
aI556
aa(lp1115
S'chairs'
p1116
aI557
aa(lp1117
S'feeding'
p1118
aI558
aa(lp1119
S'barefoot'
p1120
aI559
aa(lp1121
S'above'
p1122
aI560
aa(lp1123
S'potatoes'
p1124
aI561
aa(lp1125
S'cart'
p1126
aI562
aa(lp1127
S'swiftly'
p1128
aI563
aa(lp1129
S'corner'
p1130
aI564
aa(lp1131
S'hard'
p1132
aI565
aa(lp1133
S'eyes'
p1134
aI566
aa(lp1135
S'skateboarder'
p1136
aI567
aa(lp1137
S'vehicle'
p1138
aI568
aa(lp1139
S'money'
p1140
aI569
aa(lp1141
S'adding'
p1142
aI570
aa(lp1143
S'scissors'
p1144
aI571
aa(lp1145
S'shooting'
p1146
aI572
aa(lp1147
S'pepper'
p1148
aI573
aa(lp1149
S'beating'
p1150
aI574
aa(lp1151
S'hurdle'
p1152
aI575
aa(lp1153
S'same'
p1154
aI576
aa(lp1155
S'mother'
p1156
aI577
aa(lp1157
S'raft'
p1158
aI578
aa(lp1159
S'him'
p1160
aI579
aa(lp1161
S'boot'
p1162
aI580
aa(lp1163
S'motorcyclist'
p1164
aI581
aa(lp1165
S'boxing'
p1166
aI582
aa(lp1167
S'American'
p1168
aI583
aa(lp1169
S'wading'
p1170
aI584
aa(lp1171
S'faces'
p1172
aI585
aa(lp1173
S'knees'
p1174
aI586
aa(lp1175
S'packing'
p1176
aI587
aa(lp1177
S'device'
p1178
aI588
aa(lp1179
S'wooded'
p1180
aI589
aa(lp1181
S'applying'
p1182
aI590
aa(lp1183
S'herd'
p1184
aI591
aa(lp1185
S'court'
p1186
aI592
aa(lp1187
S'target'
p1188
aI593
aa(lp1189
S'swinging'
p1190
aI594
aa(lp1191
S'adult'
p1192
aI595
aa(lp1193
S'spread'
p1194
aI596
aa(lp1195
S'fallen'
p1196
aI597
aa(lp1197
S'tattoo'
p1198
aI598
aa(lp1199
S'vegetable'
p1200
aI599
aa(lp1201
S'studying'
p1202
aI600
aa(lp1203
S'reindeer'
p1204
aI601
aa(lp1205
S'scarf'
p1206
aI602
aa(lp1207
S'shirts'
p1208
aI603
aa(lp1209
S'turning'
p1210
aI604
aa(lp1211
S'costume'
p1212
aI605
aa(lp1213
S'worn'
p1214
aI606
aa(lp1215
S'approaching'
p1216
aI607
aa(lp1217
S'gym'
p1218
aI608
aa(lp1219
S'platform'
p1220
aI609
aa(lp1221
S'broccoli'
p1222
aI610
aa(lp1223
S'whisk'
p1224
aI611
aa(lp1225
S'glass'
p1226
aI612
aa(lp1227
S'sauce'
p1228
aI613
aa(lp1229
S'stream'
p1230
aI614
aa(lp1231
S'toddler'
p1232
aI615
aa(lp1233
S'kitchen'
p1234
aI616
aa(lp1235
S'hole'
p1236
aI617
aa(lp1237
S'frisbee'
p1238
aI618
aa(lp1239
S'daughter'
p1240
aI619
aa(lp1241
S'military'
p1242
aI620
aa(lp1243
S'having'
p1244
aI621
aa(lp1245
S'placing'
p1246
aI622
aa(lp1247
S'grazing'
p1248
aI623
aa(lp1249
S'stand'
p1250
aI624
aa(lp1251
S'mixer'
p1252
aI625
aa(lp1253
S'bear'
p1254
aI626
aa(lp1255
S'newspapers'
p1256
aI627
aa(lp1257
S'outdoor'
p1258
aI628
aa(lp1259
S'collar'
p1260
aI629
aa(lp1261
S'cans'
p1262
aI630
aa(lp1263
S'perched'
p1264
aI631
aa(lp1265
S'corndogs'
p1266
aI632
aa(lp1267
S'pair'
p1268
aI633
aa(lp1269
S'painting'
p1270
aI634
aa(lp1271
S'curiously'
p1272
aI635
aa(lp1273
S'cheerfully'
p1274
aI636
aa(lp1275
S'cardboard'
p1276
aI637
aa(lp1277
S'firing'
p1278
aI638
aa(lp1279
S'catch'
p1280
aI639
aa(lp1281
S'arm'
p1282
aI640
aa(lp1283
S'steps'
p1284
aI641
aa(lp1285
S'brush'
p1286
aI642
aa(lp1287
S'construction'
p1288
aI643
aa(lp1289
S'size'
p1290
aI644
aa(lp1291
S'distance'
p1292
aI645
aa(lp1293
S'sunset'
p1294
aI646
aa(lp1295
S'Children'
p1296
aI647
aa(lp1297
S'indoors'
p1298
aI648
aa(lp1299
S'brushing'
p1300
aI649
aa(lp1301
S'mid'
p1302
aI650
aa(lp1303
S'wire'
p1304
aI651
aa(lp1305
S'cheetah'
p1306
aI652
aa(lp1307
S'flowers'
p1308
aI653
aa(lp1309
S'little,'
p1310
aI654
aa(lp1311
S'elderly'
p1312
aI655
aa(lp1313
S'mechanical'
p1314
aI656
aa(lp1315
S'steak'
p1316
aI657
aa(lp1317
S'put'
p1318
aI658
aa(lp1319
S'teams'
p1320
aI659
aa(lp1321
S'photo'
p1322
aI660
aa(lp1323
S'basketball'
p1324
aI661
aa(lp1325
S'wings'
p1326
aI662
aa(lp1327
S'store'
p1328
aI663
aa(lp1329
S'mask'
p1330
aI664
aa(lp1331
S'tunnel'
p1332
aI665
aa(lp1333
S'flower'
p1334
aI666
aa(lp1335
S'lens'
p1336
aI667
aa(lp1337
S'diving'
p1338
aI668
aa(lp1339
S'burning'
p1340
aI669
aa(lp1341
S'rest'
p1342
aI670
aa(lp1343
S'looks'
p1344
aI671
aa(lp1345
S'fire'
p1346
aI672
aa(lp1347
S'sweater'
p1348
aI673
aa(lp1349
S'rinsing'
p1350
aI674
aa(lp1351
S'missing'
p1352
aI675
aa(lp1353
S'sprinkling'
p1354
aI676
aa(lp1355
S'past'
p1356
aI677
aa(lp1357
S'thick'
p1358
aI678
aa(lp1359
S'typing'
p1360
aI679
aa(lp1361
S'concrete'
p1362
aI680
aa(lp1363
S'gathering'
p1364
aI681
aa(lp1365
S'low'
p1366
aI682
aa(lp1367
S'hungrily'
p1368
aI683
aa(lp1369
S'direction'
p1370
aI684
aa(lp1371
S'friends'
p1372
aI685
aa(lp1373
S'steep'
p1374
aI686
aa(lp1375
S'binoculars'
p1376
aI687
aa(lp1377
S'towards'
p1378
aI688
aa(lp1379
S'combing'
p1380
aI689
aa(lp1381
S'sport'
p1382
aI690
aa(lp1383
S'placed'
p1384
aI691
aa(lp1385
S'sound'
p1386
aI692
aa(lp1387
S'crawling'
p1388
aI693
aa(lp1389
S'bank'
p1390
aI694
aa(lp1391
S'package'
p1392
aI695
aa(lp1393
S'tomatoes'
p1394
aI696
aa(lp1395
S'headphones'
p1396
aI697
aa(lp1397
S'attentively'
p1398
aI698
aa(lp1399
S'following'
p1400
aI699
aa(lp1401
S'open'
p1402
aI700
aa(lp1403
S'white,'
p1404
aI701
aa(lp1405
S'board'
p1406
aI702
aa(lp1407
S'sheep'
p1408
aI703
aa(lp1409
S'tattoos'
p1410
aI704
aa(lp1411
S'wind'
p1412
aI705
aa(lp1413
S'far'
p1414
aI706
aa(lp1415
S'busy'
p1416
aI707
aa(lp1417
S'juice'
p1418
aI708
aa(lp1419
S'telephone'
p1420
aI709
aa(lp1421
S'drunk'
p1422
aI710
aa(lp1423
S'gold'
p1424
aI711
aa(lp1425
S'persons'
p1426
aI712
aa(lp1427
S'small,'
p1428
aI713
aa(lp1429
S'equipment'
p1430
aI714
aa(lp1431
S'cell'
p1432
aI715
aa(lp1433
S'games'
p1434
aI716
aa(lp1435
S'buckets'
p1436
aI717
aa(lp1437
S'climbed'
p1438
aI718
aa(lp1439
S'bearded'
p1440
aI719
aa(lp1441
S'young,'
p1442
aI720
aa(lp1443
S'cold'
p1444
aI721
aa(lp1445
S'spraying'
p1446
aI722
aa(lp1447
S'underwater'
p1448
aI723
aa(lp1449
S'have'
p1450
aI724
aa(lp1451
S'Christmas'
p1452
aI725
aa(lp1453
S'brick'
p1454
aI726
aa(lp1455
S'tongue'
p1456
aI727
aa(lp1457
S'garden'
p1458
aI728
aa(lp1459
S'kickboxing'
p1460
aI729
aa(lp1461
S'rink'
p1462
aI730
aa(lp1463
S'mountains'
p1464
aI731
aa(lp1465
S'sparring'
p1466
aI732
aa(lp1467
S'feet'
p1468
aI733
aa(lp1469
S'girl,'
p1470
aI734
aa(lp1471
S'keeping'
p1472
aI735
aa(lp1473
S'pacing'
p1474
aI736
aa(lp1475
S'birdcage'
p1476
aI737
aa(lp1477
S'frolicking'
p1478
aI738
aa(lp1479
S'line'
p1480
aI739
aa(lp1481
S'fingers'
p1482
aI740
aa(lp1483
S'competing'
p1484
aI741
aa(lp1485
S'pipe'
p1486
aI742
aa(lp1487
S'breaded'
p1488
aI743
aa(lp1489
S'tray'
p1490
aI744
aa(lp1491
S'woods'
p1492
aI745
aa(lp1493
S'stopping'
p1494
aI746
aa(lp1495
S'martial'
p1496
aI747
aa(lp1497
S'fan'
p1498
aI748
aa(lp1499
S'song'
p1500
aI749
aa(lp1501
S'ring'
p1502
aI750
aa(lp1503
S'metal'
p1504
aI751
aa(lp1505
S'eyelid'
p1506
aI752
aa(lp1507
S'airplane'
p1508
aI753
aa(lp1509
S'stove'
p1510
aI754
aa(lp1511
S'elephant'
p1512
aI755
aa(lp1513
S'cameras'
p1514
aI756
aa(lp1515
S'horses'
p1516
aI757
aa(lp1517
S'banging'
p1518
aI758
aa(lp1519
S'cereal'
p1520
aI759
aa(lp1521
S'blocks'
p1522
aI760
aa(lp1523
S'carriage'
p1524
aI761
aa(lp1525
S'setting'
p1526
aI762
aa(lp1527
S'dish'
p1528
aI763
aa(lp1529
S'dry'
p1530
aI764
aa(lp1531
S'blowing'
p1532
aI765
aa(lp1533
S'exercising'
p1534
aI766
aa(lp1535
S'driven'
p1536
aI767
aa(lp1537
S'chili'
p1538
aI768
aa(lp1539
S'karate'
p1540
aI769
aa(lp1541
S'knives'
p1542
aI770
aa(lp1543
S'half'
p1544
aI771
aa(lp1545
S'arts'
p1546
aI772
aa(lp1547
S'vest'
p1548
aI773
aa(lp1549
S'makes'
p1550
aI774
aa(lp1551
S'videos'
p1552
aI775
aa(lp1553
S'tying'
p1554
aI776
aa(lp1555
S'classroom'
p1556
aI777
aa(lp1557
S'subject'
p1558
aI778
aa(lp1559
S'cigarette'
p1560
aI779
aa(lp1561
S'straw'
p1562
aI780
aa(lp1563
S'wedding'
p1564
aI781
aa(lp1565
S'flapping'
p1566
aI782
aa(lp1567
S'middle'
p1568
aI783
aa(lp1569
S'suits'
p1570
aI784
aa(lp1571
S'bee'
p1572
aI785
aa(lp1573
S'furry'
p1574
aI786
aa(lp1575
S'sports'
p1576
aI787
aa(lp1577
S'skates'
p1578
aI788
aa(lp1579
S'wilderness'
p1580
aI789
aa(lp1581
S'passionately'
p1582
aI790
aa(lp1583
S'log'
p1584
aI791
aa(lp1585
S'cement'
p1586
aI792
aa(lp1587
S'shopping'
p1588
aI793
aa(lp1589
S'saddle'
p1590
aI794
aa(lp1591
S'climber'
p1592
aI795
aa(lp1593
S'map'
p1594
aI796
aa(lp1595
S'sharpening'
p1596
aI797
aa(lp1597
S'beers'
p1598
aI798
aa(lp1599
S'beer'
p1600
aI799
aa(lp1601
S'seat'
p1602
aI800
aa(lp1603
S'event'
p1604
aI801
aa(lp1605
S'tube'
p1606
aI802
aa(lp1607
S'watermelon'
p1608
aI803
aa(lp1609
S'waving'
p1610
aI804
aa(lp1611
S'logs'
p1612
aI805
aa(lp1613
S'rugby'
p1614
aI806
aa(lp1615
S'shoe'
p1616
aI807
aa(lp1617
S'naked'
p1618
aI808
aa(lp1619
S'desert'
p1620
aI809
aa(lp1621
S'landscape'
p1622
aI810
aa(lp1623
S'steadily'
p1624
aI811
aa(lp1625
S'protective'
p1626
aI812
aa(lp1627
S'begging'
p1628
aI813
aa(lp1629
S'squirt'
p1630
aI814
aa(lp1631
S'tambourines'
p1632
aI815
aa(lp1633
S'inline'
p1634
aI816
aa(lp1635
S'rising'
p1636
aI817
aa(lp1637
S'groom'
p1638
aI818
aa(lp1639
S'really'
p1640
aI819
aa(lp1641
S'cap'
p1642
aI820
aa(lp1643
S'clear'
p1644
aI821
aa(lp1645
S'swamp'
p1646
aI822
aa(lp1647
S'mostly'
p1648
aI823
aa(lp1649
S'object'
p1650
aI824
aa(lp1651
S'Different'
p1652
aI825
aa(lp1653
S'pasture'
p1654
aI826
aa(lp1655
S'sea'
p1656
aI827
aa(lp1657
S'buttering'
p1658
aI828
aa(lp1659
S'smoking'
p1660
aI829
aa(lp1661
S'hugging'
p1662
aI830
aa(lp1663
S'lifting'
p1664
aI831
aa(lp1665
S'sewing'
p1666
aI832
aa(lp1667
S'Jockeys'
p1668
aI833
aa(lp1669
S'plane'
p1670
aI834
aa(lp1671
S'podium'
p1672
aI835
aa(lp1673
S'four'
p1674
aI836
aa(lp1675
S'backpack'
p1676
aI837
aa(lp1677
S'eye'
p1678
aI838
aa(lp1679
S'dangerously'
p1680
aI839
aa(lp1681
S'several'
p1682
aI840
aa(lp1683
S'completely'
p1684
aI841
aa(lp1685
S'lion'
p1686
aI842
aa(lp1687
S'curb'
p1688
aI843
aa(lp1689
S'woman,'
p1690
aI844
aa(lp1691
S'bottom'
p1692
aI845
aa(lp1693
S'skinned'
p1694
aI846
aa(lp1695
S'listening'
p1696
aI847
aa(lp1697
S'bathing'
p1698
aI848
aa(lp1699
S'photographers'
p1700
aI849
aa(lp1701
S'peacefully'
p1702
aI850
aa(lp1703
S'silencer'
p1704
aI851
aa(lp1705
S'pandas'
p1706
aI852
aa(lp1707
S'teens'
p1708
aI853
aa(lp1709
S"dog's"
p1710
aI854
aa(lp1711
S'someone'
p1712
aI855
aa(lp1713
S'jumper'
p1714
aI856
aa(lp1715
S'bikinis'
p1716
aI857
aa(lp1717
S'hind'
p1718
aI858
aa(lp1719
S'earrings'
p1720
aI859
aa(lp1721
S'sweatshirt'
p1722
aI860
aa(lp1723
S'racer'
p1724
aI861
aa(lp1725
S'trying'
p1726
aI862
aa(lp1727
S'singer'
p1728
aI863
aa(lp1729
S'handstand'
p1730
aI864
aa(lp1731
S'red,'
p1732
aI865
aa(lp1733
S'carelessly'
p1734
aI866
aa(lp1735
S'droplets'
p1736
aI867
aa(lp1737
S'zucchini'
p1738
aI868
aa(lp1739
S'lamp'
p1740
aI869
aa(lp1741
S'counter'
p1742
aI870
aa(lp1743
S'cook'
p1744
aI871
aa(lp1745
S'male'
p1746
aI872
aa(lp1747
S'kissing'
p1748
aI873
aa(lp1749
S'checking'
p1750
aI874
aa(lp1751
S'dock'
p1752
aI875
aa(lp1753
S'added'
p1754
aI876
aa(lp1755
S'circles'
p1756
aI877
aa(lp1757
S'muzzle'
p1758
aI878
aa(lp1759
S'severing'
p1760
aI879
aa(lp1761
S'toddlers'
p1762
aI880
aa(lp1763
S'volleyball'
p1764
aI881
aa(lp1765
S'tongues'
p1766
aI882
aa(lp1767
S'mat'
p1768
aI883
aa(lp1769
S'barren'
p1770
aI884
aa(lp1771
S'angels'
p1772
aI885
aa(lp1773
S'leafless'
p1774
aI886
aa(lp1775
S'right'
p1776
aI887
aa(lp1777
S'toe'
p1778
aI888
aa(lp1779
S'cheering'
p1780
aI889
aa(lp1781
S'sleeping'
p1782
aI890
aa(lp1783
S'tank'
p1784
aI891
aa(lp1785
S'prey'
p1786
aI892
aa(lp1787
S'fist'
p1788
aI893
aa(lp1789
S'turtle'
p1790
aI894
aa(lp1791
S'folding'
p1792
aI895
aa(lp1793
S'case'
p1794
aI896
aa(lp1795
S'performed'
p1796
aI897
aa(lp1797
S'uniform,'
p1798
aI898
aa(lp1799
S'chaps'
p1800
aI899
aa(lp1801
S'tofu'
p1802
aI900
aa(lp1803
S'plate'
p1804
aI901
aa(lp1805
S'magic'
p1806
aI902
aa(lp1807
S'base'
p1808
aI903
aa(lp1809
S'paddling'
p1810
aI904
aa(lp1811
S'plants'
p1812
aI905
aa(lp1813
S'darkened'
p1814
aI906
aa(lp1815
S'muscular'
p1816
aI907
aa(lp1817
S'parade'
p1818
aI908
aa(lp1819
S'sink'
p1820
aI909
aa(lp1821
S'shredded'
p1822
aI910
aa(lp1823
S'weapon'
p1824
aI911
aa(lp1825
S'intensely'
p1826
aI912
aa(lp1827
S'sawing'
p1828
aI913
aa(lp1829
S'internet'
p1830
aI914
aa(lp1831
S'tearing'
p1832
aI915
aa(lp1833
S'waterskiing'
p1834
aI916
aa(lp1835
S'rifle'
p1836
aI917
aa(lp1837
S'clumsily'
p1838
aI918
aa(lp1839
S'surface'
p1840
aI919
aa(lp1841
S'inflatable'
p1842
aI920
aa(lp1843
S'bare'
p1844
aI921
aa(lp1845
S'pet'
p1846
aI922
aa(lp1847
S'pony'
p1848
aI923
aa(lp1849
S'playfully'
p1850
aI924
aa(lp1851
S'sprinting'
p1852
aI925
aa(lp1853
S'drilling'
p1854
aI926
aa(lp1855
S'drinks'
p1856
aI927
aa(lp1857
S'child,'
p1858
aI928
aa(lp1859
S'market'
p1860
aI929
aa(lp1861
S'pocket'
p1862
aI930
aa(lp1863
S'drawer'
p1864
aI931
aa(lp1865
S'necklace,'
p1866
aI932
aa(lp1867
S'paws'
p1868
aI933
aa(lp1869
S'kayak'
p1870
aI934
aa(lp1871
S'deep'
p1872
aI935
aa(lp1873
S'trash'
p1874
aI936
aa(lp1875
S'trainer'
p1876
aI937
aa(lp1877
S'skyline'
p1878
aI938
aa(lp1879
S'rodeo'
p1880
aI939
aa(lp1881
S'acoustic'
p1882
aI940
aa(lp1883
S'video'
p1884
aI941
aa(lp1885
S'gift'
p1886
aI942
aa(lp1887
S'barrel'
p1888
aI943
aa(lp1889
S'snowboard'
p1890
aI944
aa(lp1891
S'shrimp'
p1892
aI945
aa(lp1893
S'scrubbing'
p1894
aI946
aa(lp1895
S'Women'
p1896
aI947
aa(lp1897
S'tugging'
p1898
aI948
aa(lp1899
S'fireplace'
p1900
aI949
aa(lp1901
S'waking'
p1902
aI950
aa(lp1903
S'contains'
p1904
aI951
aa(lp1905
S'participating'
p1906
aI952
aa(lp1907
S'jetski'
p1908
aI953
aa(lp1909
S'opponent'
p1910
aI954
aa(lp1911
S'patterned'
p1912
aI955
aa(lp1913
S'go-kart'
p1914
aI956
aa(lp1915
S'panel'
p1916
aI957
aa(lp1917
S'leading'
p1918
aI958
aa(lp1919
S'tackling'
p1920
aI959
aa(lp1921
S'hay'
p1922
aI960
aa(lp1923
S'grand'
p1924
aI961
aa(lp1925
S'thin'
p1926
aI962
aa(lp1927
S'Adults'
p1928
aI963
aa(lp1929
S'teenager'
p1930
aI964
aa(lp1931
S'float'
p1932
aI965
aa(lp1933
S'interview'
p1934
aI966
aa(lp1935
S'chicken'
p1936
aI967
aa(lp1937
S'strongly'
p1938
aI968
aa(lp1939
S'Eggs'
p1940
aI969
aa(lp1941
S'great'
p1942
aI970
aa(lp1943
S'coming'
p1944
aI971
aa(lp1945
S'digging'
p1946
aI972
aa(lp1947
S'animals'
p1948
aI973
aa(lp1949
S'rope,'
p1950
aI974
aa(lp1951
S'rally'
p1952
aI975
aa(lp1953
S'liquid'
p1954
aI976
aa(lp1955
S'bend'
p1956
aI977
aa(lp1957
S'lone'
p1958
aI978
aa(lp1959
S'poodles'
p1960
aI979
aa(lp1961
S'play'
p1962
aI980
aa(lp1963
S'cheerleader'
p1964
aI981
aa(lp1965
S'tiredly'
p1966
aI982
aa(lp1967
S'microwave'
p1968
aI983
aa(lp1969
S'Somebody'
p1970
aI984
aa(lp1971
S'smile'
p1972
aI985
aa(lp1973
S'there'
p1974
aI986
aa(lp1975
S'strange'
p1976
aI987
aa(lp1977
S'garage'
p1978
aI988
aa(lp1979
S'khaki'
p1980
aI989
aa(lp1981
S'tape'
p1982
aI990
aa(lp1983
S'state'
p1984
aI991
aa(lp1985
S'exercises'
p1986
aI992
aa(lp1987
S'shade'
p1988
aI993
aa(lp1989
S'shrimps'
p1990
aI994
aa(lp1991
S'poles'
p1992
aI995
aa(lp1993
S'basket'
p1994
aI996
aa(lp1995
S'infant'
p1996
aI997
aa(lp1997
S'boy,'
p1998
aI998
aa(lp1999
S'facing'
p2000
aI999
aa(lp2001
S'squirrel'
p2002
aI1000
aa(lp2003
S'bucket'
p2004
aI1001
aa(lp2005
S'lemon'
p2006
aI1002
aa(lp2007
S'probably'
p2008
aI1003
aa(lp2009
S'about'
p2010
aI1004
aa(lp2011
S'rubbing'
p2012
aI1005
aa(lp2013
S'friend'
p2014
aI1006
aa(lp2015
S'stuck'
p2016
aI1007
aa(lp2017
S'barbells'
p2018
aI1008
aa(lp2019
S'different'
p2020
aI1009
aa(lp2021
S'gnawing'
p2022
aI1010
aa(lp2023
S'spanking'
p2024
aI1011
aa(lp2025
S'terrain'
p2026
aI1012
aa(lp2027
S'olive'
p2028
aI1013
aa(lp2029
S'silent'
p2030
aI1014
aa(lp2031
S'cheeks'
p2032
aI1015
aa(lp2033
S'patches'
p2034
aI1016
aa(lp2035
S'field,'
p2036
aI1017
aa(lp2037
S'make-up'
p2038
aI1018
aa(lp2039
S'zoo'
p2040
aI1019
aa(lp2041
S'pinwheel'
p2042
aI1020
aa(lp2043
S'hillside'
p2044
aI1021
aa(lp2045
S'watched'
p2046
aI1022
aa(lp2047
S'laying'
p2048
aI1023
aa(lp2049
S'aisle'
p2050
aI1024
aa(lp2051
S'balcony'
p2052
aI1025
aa(lp2053
S'lavender'
p2054
aI1026
aa(lp2055
S'beautiful'
p2056
aI1027
aa(lp2057
S'pole'
p2058
aI1028
aa(lp2059
S'pedestrians'
p2060
aI1029
aa(lp2061
S'trotting'
p2062
aI1030
aa(lp2063
S'camouflage'
p2064
aI1031
aa(lp2065
S'marching'
p2066
aI1032
aa(lp2067
S'dead'
p2068
aI1033
aa(lp2069
S'skiing'
p2070
aI1034
aa(lp2071
S'stack'
p2072
aI1035
aa(lp2073
S'snow,'
p2074
aI1036
aa(lp2075
S'wetsuit'
p2076
aI1037
aa(lp2077
S'wagon,'
p2078
aI1038
aa(lp2079
S'art'
p2080
aI1039
aa(lp2081
S'rack'
p2082
aI1040
aa(lp2083
S'provide'
p2084
aI1041
aa(lp2085
S'rail'
p2086
aI1042
aa(lp2087
S'sharp'
p2088
aI1043
aa(lp2089
S'gallery'
p2090
aI1044
aa(lp2091
S'duck'
p2092
aI1045
aa(lp2093
S'floats'
p2094
aI1046
aa(lp2095
S'scenic'
p2096
aI1047
aa(lp2097
S'backyard'
p2098
aI1048
aa(lp2099
S'volleyballs'
p2100
aI1049
aa(lp2101
S'recreation'
p2102
aI1050
aa(lp2103
S'wiping'
p2104
aI1051
aa(lp2105
S'official'
p2106
aI1052
aa(lp2107
S'post'
p2108
aI1053
aa(lp2109
S'cupcake'
p2110
aI1054
aa(lp2111
S'cleaned'
p2112
aI1055
aa(lp2113
S'fetching'
p2114
aI1056
aa(lp2115
S'pyramid-shaped'
p2116
aI1057
aa(lp2117
S'stands'
p2118
aI1058
aa(lp2119
S'emerging'
p2120
aI1059
aa(lp2121
S'trays'
p2122
aI1060
aa(lp2123
S'escorting'
p2124
aI1061
aa(lp2125
S'kneeling'
p2126
aI1062
aa(lp2127
S'peel'
p2128
aI1063
aa(lp2129
S'carrots'
p2130
aI1064
aa(lp2131
S'rough'
p2132
aI1065
aa(lp2133
S'sides'
p2134
aI1066
aa(lp2135
S'guitar,'
p2136
aI1067
aa(lp2137
S"somebody's"
p2138
aI1068
aa(lp2139
S'spoon'
p2140
aI1069
aa(lp2141
S'sled'
p2142
aI1070
aa(lp2143
S'acoustic,'
p2144
aI1071
aa(lp2145
S'outfit'
p2146
aI1072
aa(lp2147
S'spotted'
p2148
aI1073
aa(lp2149
S'leotard'
p2150
aI1074
aa(lp2151
S'fearful'
p2152
aI1075
aa(lp2153
S'concert'
p2154
aI1076
aa(lp2155
S'lit'
p2156
aI1077
aa(lp2157
S'bay'
p2158
aI1078
aa(lp2159
S'windows'
p2160
aI1079
aa(lp2161
S'attached'
p2162
aI1080
aa(lp2163
S'slice'
p2164
aI1081
aa(lp2165
S'only'
p2166
aI1082
aa(lp2167
S'flowing'
p2168
aI1083
aa(lp2169
S'numbers'
p2170
aI1084
aa(lp2171
S'she'
p2172
aI1085
aa(lp2173
S'backbends'
p2174
aI1086
aa(lp2175
S'village'
p2176
aI1087
aa(lp2177
S'books'
p2178
aI1088
aa(lp2179
S'exploding'
p2180
aI1089
aa(lp2181
S'handling'
p2182
aI1090
aa(lp2183
S'cricket'
p2184
aI1091
aa(lp2185
S'ATVs'
p2186
aI1092
aa(lp2187
S'figures'
p2188
aI1093
aa(lp2189
S'Men'
p2190
aI1094
aa(lp2191
S'tackled'
p2192
aI1095
aa(lp2193
S'country'
p2194
aI1096
aa(lp2195
S'bubble'
p2196
aI1097
aa(lp2197
S'cabinet'
p2198
aI1098
aa(lp2199
S'Rugby'
p2200
aI1099
aa(lp2201
S'headband'
p2202
aI1100
aa(lp2203
S'without'
p2204
aI1101
aa(lp2205
S'hopping'
p2206
aI1102
aa(lp2207
S'card'
p2208
aI1103
aa(lp2209
S'guinea'
p2210
aI1104
aa(lp2211
S'nude'
p2212
aI1105
aa(lp2213
S'scoring'
p2214
aI1106
aa(lp2215
S'beret'
p2216
aI1107
aa(lp2217
S'comfortably'
p2218
aI1108
aa(lp2219
S'alone'
p2220
aI1109
aa(lp2221
S'homeless'
p2222
aI1110
aa(lp2223
S'kick'
p2224
aI1111
aa(lp2225
S'gloves'
p2226
aI1112
aa(lp2227
S'capsicum'
p2228
aI1113
aa(lp2229
S'painted'
p2230
aI1114
aa(lp2231
S'police'
p2232
aI1115
aa(lp2233
S'cop'
p2234
aI1116
aa(lp2235
S'ferrets'
p2236
aI1117
aa(lp2237
S'call'
p2238
aI1118
aa(lp2239
S'grabbing'
p2240
aI1119
aa(lp2241
S'veil'
p2242
aI1120
aa(lp2243
S'book'
p2244
aI1121
aa(lp2245
S'position'
p2246
aI1122
aa(lp2247
S'balls'
p2248
aI1123
aa(lp2249
S'aimlessly'
p2250
aI1124
aa(lp2251
S'hiker'
p2252
aI1125
aa(lp2253
S'headdress'
p2254
aI1126
aa(lp2255
S'candles'
p2256
aI1127
aa(lp2257
S'tights'
p2258
aI1128
aa(lp2259
S'pig'
p2260
aI1129
aa(lp2261
S'leg'
p2262
aI1130
aa(lp2263
S'brown,'
p2264
aI1131
aa(lp2265
S'webcam'
p2266
aI1132
aa(lp2267
S'jam'
p2268
aI1133
aa(lp2269
S'tuxedos'
p2270
aI1134
aa(lp2271
S'pine,'
p2272
aI1135
aa(lp2273
S'bandanna'
p2274
aI1136
aa(lp2275
S'tree,'
p2276
aI1137
aa(lp2277
S'traffic'
p2278
aI1138
aa(lp2279
S'current'
p2280
aI1139
aa(lp2281
S'finger'
p2282
aI1140
aa(lp2283
S'skateboarding'
p2284
aI1141
aa(lp2285
S'class'
p2286
aI1142
aa(lp2287
S'launching'
p2288
aI1143
aa(lp2289
S'big,'
p2290
aI1144
aa(lp2291
S'spout'
p2292
aI1145
aa(lp2293
S'married'
p2294
aI1146
aa(lp2295
S'blue,'
p2296
aI1147
aa(lp2297
S'blow'
p2298
aI1148
aa(lp2299
S'torch'
p2300
aI1149
aa(lp2301
S'pile'
p2302
aI1150
aa(lp2303
S'skillfully'
p2304
aI1151
aa(lp2305
S'unicycle'
p2306
aI1152
aa(lp2307
S'Pedestrians'
p2308
aI1153
aa(lp2309
S'parading'
p2310
aI1154
aa(lp2311
S'malnourished'
p2312
aI1155
aa(lp2313
S'speeding'
p2314
aI1156
aa(lp2315
S'female'
p2316
aI1157
aa(lp2317
S'pyramid'
p2318
aI1158
aa(lp2319
S'badger'
p2320
aI1159
aa(lp2321
S'spreading'
p2322
aI1160
aa(lp2323
S'praying'
p2324
aI1161
aa(lp2325
S'fed'
p2326
aI1162
aa(lp2327
S'work'
p2328
aI1163
aa(lp2329
S'blankets'
p2330
aI1164
aa(lp2331
S'obstacle'
p2332
aI1165
aa(lp2333
S'erasing'
p2334
aI1166
aa(lp2335
S'ramps'
p2336
aI1167
aa(lp2337
S'excitedly'
p2338
aI1168
aa(lp2339
S'gray,'
p2340
aI1169
aa(lp2341
S'petting'
p2342
aI1170
aa(lp2343
S'snapping'
p2344
aI1171
aa(lp2345
S'blades'
p2346
aI1172
aa(lp2347
S'drill'
p2348
aI1173
aa(lp2349
S'eyeing'
p2350
aI1174
aa(lp2351
S'pursuing'
p2352
aI1175
aa(lp2353
S'peppers'
p2354
aI1176
aa(lp2355
S'doll'
p2356
aI1177
aa(lp2357
S'baskets'
p2358
aI1178
aa(lp2359
S'overlooking'
p2360
aI1179
aa(lp2361
S'toward'
p2362
aI1180
aa(lp2363
S'boots'
p2364
aI1181
aa(lp2365
S'sponsor'
p2366
aI1182
aa(lp2367
S'tire'
p2368
aI1183
aa(lp2369
S'emptying'
p2370
aI1184
aa(lp2371
S'left'
p2372
aI1185
aa(lp2373
S'wild'
p2374
aI1186
aa(lp2375
S'they'
p2376
aI1187
aa(lp2377
S'cooked'
p2378
aI1188
aa(lp2379
S'rags'
p2380
aI1189
aa(lp2381
S'rides'
p2382
aI1190
aa(lp2383
S'logos'
p2384
aI1191
aa(lp2385
S'doctors'
p2386
aI1192
aa(lp2387
S'hockey'
p2388
aI1193
aa(lp2389
S'related'
p2390
aI1194
aa(lp2391
S'screwing'
p2392
aI1195
aa(lp2393
S'tiny'
p2394
aI1196
aa(lp2395
S'himself'
p2396
aI1197
aa(lp2397
S'workers'
p2398
aI1198
aa(lp2399
S'toad'
p2400
aI1199
aa(lp2401
S'language'
p2402
aI1200
aa(lp2403
S'as'
p2404
aI1201
aa(lp2405
S'creek'
p2406
aI1202
aa(lp2407
S'mantel'
p2408
aI1203
aa(lp2409
S'happy'
p2410
aI1204
aa(lp2411
S'skier'
p2412
aI1205
aa(lp2413
S'peddling'
p2414
aI1206
aa(lp2415
S'rabbit'
p2416
aI1207
aa(lp2417
S'bit'
p2418
aI1208
aa(lp2419
S'sniffing'
p2420
aI1209
aa(lp2421
S'ginger'
p2422
aI1210
aa(lp2423
S'pebbly'
p2424
aI1211
aa(lp2425
S'show'
p2426
aI1212
aa(lp2427
S'whisking'
p2428
aI1213
aa(lp2429
S'reviving'
p2430
aI1214
aa(lp2431
S'massaging'
p2432
aI1215
aa(lp2433
S'clove'
p2434
aI1216
aa(lp2435
S'world'
p2436
aI1217
aa(lp2437
S'patient'
p2438
aI1218
aa(lp2439
S'helping'
p2440
aI1219
aa(lp2441
S'boa'
p2442
aI1220
aa(lp2443
S'celebrating'
p2444
aI1221
aa(lp2445
S'new'
p2446
aI1222
aa(lp2447
S'experiencing'
p2448
aI1223
aa(lp2449
S'doctor'
p2450
aI1224
aa(lp2451
S'arrangement'
p2452
aI1225
aa(lp2453
S'raised'
p2454
aI1226
aa(lp2455
S'buttered'
p2456
aI1227
aa(lp2457
S'sumo'
p2458
aI1228
aa(lp2459
S'moustache'
p2460
aI1229
aa(lp2461
S'breeds'
p2462
aI1230
aa(lp2463
S'mixed'
p2464
aI1231
aa(lp2465
S'mixture'
p2466
aI1232
aa(lp2467
S'knocked'
p2468
aI1233
aa(lp2469
S'scarves'
p2470
aI1234
aa(lp2471
S'tower'
p2472
aI1235
aa(lp2473
S'accessories'
p2474
aI1236
aa(lp2475
S'large,'
p2476
aI1237
aa(lp2477
S'spitting'
p2478
aI1238
aa(lp2479
S'faucet'
p2480
aI1239
aa(lp2481
S'crane'
p2482
aI1240
aa(lp2483
S'skipping'
p2484
aI1241
aa(lp2485
S'mountainside'
p2486
aI1242
aa(lp2487
S'loaves'
p2488
aI1243
aa(lp2489
S'joyfully'
p2490
aI1244
aa(lp2491
S'set'
p2492
aI1245
aa(lp2493
S'stairs,'
p2494
aI1246
aa(lp2495
S'heart'
p2496
aI1247
aa(lp2497
S'Egyptian'
p2498
aI1248
aa(lp2499
S'hair,'
p2500
aI1249
aa(lp2501
S'driver'
p2502
aI1250
aa(lp2503
S'many'
p2504
aI1251
aa(lp2505
S'saucer'
p2506
aI1252
aa(lp2507
S'coats'
p2508
aI1253
aa(lp2509
S'winter'
p2510
aI1254
aa(lp2511
S'power'
p2512
aI1255
aa(lp2513
S'seating'
p2514
aI1256
aa(lp2515
S'Rollerbladers'
p2516
aI1257
aa(lp2517
S'vertical'
p2518
aI1258
aa(lp2519
S'roadway'
p2520
aI1259
aa(lp2521
S'formation'
p2522
aI1260
aa(lp2523
S'hedgehog'
p2524
aI1261
aa(lp2525
S'ponytail'
p2526
aI1262
aa(lp2527
S'afghan'
p2528
aI1263
aa(lp2529
S'others'
p2530
aI1264
aa(lp2531
S'fake'
p2532
aI1265
aa(lp2533
S'idling'
p2534
aI1266
aa(lp2535
S'canoe'
p2536
aI1267
aa(lp2537
S'fly'
p2538
aI1268
aa(lp2539
S'seabird'
p2540
aI1269
aa(lp2541
S'rainbow'
p2542
aI1270
aa(lp2543
S'end'
p2544
aI1271
aa(lp2545
S'touchdown'
p2546
aI1272
aa(lp2547
S'squirting'
p2548
aI1273
aa(lp2549
S'teasing'
p2550
aI1274
aa(lp2551
S'chopped'
p2552
aI1275
aa(lp2553
S'treading'
p2554
aI1276
aa(lp2555
S'granting'
p2556
aI1277
aa(lp2557
S'incline'
p2558
aI1278
aa(lp2559
S'laid'
p2560
aI1279
aa(lp2561
S'dim'
p2562
aI1280
aa(lp2563
S'cord'
p2564
aI1281
aa(lp2565
S'skewers'
p2566
aI1282
aa(lp2567
S'stenograph'
p2568
aI1283
aa(lp2569
S'helmeted'
p2570
aI1284
aa(lp2571
S'hut'
p2572
aI1285
aa(lp2573
S'coating'
p2574
aI1286
aa(lp2575
S'eggplant'
p2576
aI1287
aa(lp2577
S'boiled'
p2578
aI1288
aa(lp2579
S'grouping'
p2580
aI1289
aa(lp2581
S'belly'
p2582
aI1290
aa(lp2583
S'cross'
p2584
aI1291
aa(lp2585
S'gathered'
p2586
aI1292
aa(lp2587
S'watering'
p2588
aI1293
aa(lp2589
S'cub'
p2590
aI1294
aa(lp2591
S'Paper'
p2592
aI1295
aa(lp2593
S'broken'
p2594
aI1296
aa(lp2595
S'enjoying'
p2596
aI1297
aa(lp2597
S'owner'
p2598
aI1298
aa(lp2599
S'almost'
p2600
aI1299
aa(lp2601
S'cute'
p2602
aI1300
aa(lp2603
S'elegant'
p2604
aI1301
aa(lp2605
S'bell'
p2606
aI1302
aa(lp2607
S'thinking'
p2608
aI1303
aa(lp2609
S'five'
p2610
aI1304
aa(lp2611
S'chubby'
p2612
aI1305
aa(lp2613
S'Seadoo'
p2614
aI1306
aa(lp2615
S'church'
p2616
aI1307
aa(lp2617
S'tortilla'
p2618
aI1308
aa(lp2619
S'basement'
p2620
aI1309
aa(lp2621
S'llama'
p2622
aI1310
aa(lp2623
S'faced'
p2624
aI1311
aa(lp2625
S'earth'
p2626
aI1312
aa(lp2627
S'camels'
p2628
aI1313
aa(lp2629
S'masonry'
p2630
aI1314
aa(lp2631
S'fried'
p2632
aI1315
aa(lp2633
S'monument'
p2634
aI1316
aa(lp2635
S'perching'
p2636
aI1317
aa(lp2637
S'boards'
p2638
aI1318
aa(lp2639
S'dropped'
p2640
aI1319
aa(lp2641
S'Mimes'
p2642
aI1320
aa(lp2643
S'poured'
p2644
aI1321
aa(lp2645
S'below'
p2646
aI1322
aa(lp2647
S'rescue'
p2648
aI1323
aa(lp2649
S'caribous'
p2650
aI1324
aa(lp2651
S'cattle'
p2652
aI1325
aa(lp2653
S'swimmers'
p2654
aI1326
aa(lp2655
S'porch'
p2656
aI1327
aa(lp2657
S'shoeless'
p2658
aI1328
aa(lp2659
S'preteen'
p2660
aI1329
aa(lp2661
S'athletes'
p2662
aI1330
aa(lp2663
S'Arabic'
p2664
aI1331
aa(lp2665
S'acrobatics'
p2666
aI1332
aa(lp2667
S'hooded'
p2668
aI1333
aa(lp2669
S'eyeshadow'
p2670
aI1334
aa(lp2671
S'males'
p2672
aI1335
aa(lp2673
S'seeking'
p2674
aI1336
aa(lp2675
S'twin'
p2676
aI1337
aa(lp2677
S'skunk'
p2678
aI1338
aa(lp2679
S'one,'
p2680
aI1339
aa(lp2681
S'surf'
p2682
aI1340
aa(lp2683
S'stadium'
p2684
aI1341
aa(lp2685
S'sneezing'
p2686
aI1342
aa(lp2687
S'mouths'
p2688
aI1343
aa(lp2689
S'squatting'
p2690
aI1344
aa(lp2691
S'closing'
p2692
aI1345
aa(lp2693
S'difficulty'
p2694
aI1346
aa(lp2695
S'Tofu'
p2696
aI1347
aa(lp2697
S'cracked'
p2698
aI1348
aa(lp2699
S'nobody'
p2700
aI1349
aa(lp2701
S'tail.'
p2702
aI1350
aa(lp2703
S'travelling'
p2704
aI1351
aa(lp2705
S'bowling'
p2706
aI1352
aa(lp2707
S'footbag'
p2708
aI1353
aa(lp2709
S'dunking'
p2710
aI1354
aa(lp2711
S'goggles'
p2712
aI1355
aa(lp2713
S'murals'
p2714
aI1356
aa(lp2715
S'knee'
p2716
aI1357
aa(lp2717
S'outfits'
p2718
aI1358
aa(lp2719
S'columns'
p2720
aI1359
aa(lp2721
S'parrot'
p2722
aI1360
aa(lp2723
S'rushing'
p2724
aI1361
aa(lp2725
S'stirred'
p2726
aI1362
aa(lp2727
S'defending'
p2728
aI1363
aa(lp2729
S'prey.'
p2730
aI1364
aa(lp2731
S'Little'
p2732
aI1365
aa(lp2733
S'spectators'
p2734
aI1366
aa(lp2735
S'racquet'
p2736
aI1367
aa(lp2737
S'racket'
p2738
aI1368
aa(lp2739
S'stenography'
p2740
aI1369
aa(lp2741
S'match'
p2742
aI1370
aa(lp2743
S'policeman'
p2744
aI1371
aa(lp2745
S'tan,'
p2746
aI1372
aa(lp2747
S'ping'
p2748
aI1373
aa(lp2749
S'glacial'
p2750
aI1374
aa(lp2751
S'snowdrift'
p2752
aI1375
aa(lp2753
S'ignoring'
p2754
aI1376
aa(lp2755
S'straps'
p2756
aI1377
aa(lp2757
S'enthusiastically'
p2758
aI1378
aa(lp2759
S'clean'
p2760
aI1379
aa(lp2761
S'vast'
p2762
aI1380
aa(lp2763
S'arcade'
p2764
aI1381
aa(lp2765
S'photograph'
p2766
aI1382
aa(lp2767
S'pavement'
p2768
aI1383
aa(lp2769
S'cautiously'
p2770
aI1384
aa(lp2771
S'suit,'
p2772
aI1385
aa(lp2773
S'pong'
p2774
aI1386
aa(lp2775
S'vending'
p2776
aI1387
aa(lp2777
S'swimsuit'
p2778
aI1388
aa(lp2779
S'pushed'
p2780
aI1389
aa(lp2781
S'goalkeeper'
p2782
aI1390
aa(lp2783
S'cyclone'
p2784
aI1391
aa(lp2785
S'bale'
p2786
aI1392
aa(lp2787
S'cylindrical'
p2788
aI1393
aa(lp2789
S'cup'
p2790
aI1394
aa(lp2791
S'scrambling'
p2792
aI1395
aa(lp2793
S'super'
p2794
aI1396
aa(lp2795
S'truck'
p2796
aI1397
aa(lp2797
S'countertop'
p2798
aI1398
aa(lp2799
S'soaker'
p2800
aI1399
aa(lp2801
S'dangling'
p2802
aI1400
aa(lp2803
S'Small'
p2804
aI1401
aa(lp2805
S'deboning'
p2806
aI1402
aa(lp2807
S'shotgun'
p2808
aI1403
aa(lp2809
S'cucumber'
p2810
aI1404
aa(lp2811
S'dueling'
p2812
aI1405
aa(lp2813
S'sticks'
p2814
aI1406
aa(lp2815
S'dusk'
p2816
aI1407
aa(lp2817
S'striking'
p2818
aI1408
aa(lp2819
S'headlights'
p2820
aI1409
aa(lp2821
S'woven'
p2822
aI1410
aa(lp2823
S'walls'
p2824
aI1411
aa(lp2825
S'huge'
p2826
aI1412
aa(lp2827
S'snowball'
p2828
aI1413
aa(lp2829
S'extended'
p2830
aI1414
aa(lp2831
S'jumpsuit'
p2832
aI1415
aa(lp2833
S'outward'
p2834
aI1416
aa(lp2835
S'aiming'
p2836
aI1417
aa(lp2837
S'upwards'
p2838
aI1418
aa(lp2839
S'crossed'
p2840
aI1419
aa(lp2841
S'climbing,'
p2842
aI1420
aa(lp2843
S'tricycle'
p2844
aI1421
aa(lp2845
S'maracas'
p2846
aI1422
aa(lp2847
S'coverall'
p2848
aI1423
aa(lp2849
S'paintbrush'
p2850
aI1424
aa(lp2851
S"artist's"
p2852
aI1425
aa(lp2853
S'easel'
p2854
aI1426
aa(lp2855
S'herbs'
p2856
aI1427
aa(lp2857
S'bikes'
p2858
aI1428
aa(lp2859
S'paved'
p2860
aI1429
aa(lp2861
S'slip'
p2862
aI1430
aa(lp2863
S'practice'
p2864
aI1431
aa(lp2865
S'skull'
p2866
aI1432
aa(lp2867
S'dipping'
p2868
aI1433
aa(lp2869
S'rocking'
p2870
aI1434
aa(lp2871
S'hunting'
p2872
aI1435
aa(lp2873
S'Indian'
p2874
aI1436
aa(lp2875
S'tractor'
p2876
aI1437
aa(lp2877
S'ringers'
p2878
aI1438
aa(lp2879
S'jet'
p2880
aI1439
aa(lp2881
S'meal'
p2882
aI1440
aa(lp2883
S"person's"
p2884
aI1441
aa(lp2885
S'color'
p2886
aI1442
aa(lp2887
S'competition'
p2888
aI1443
aa(lp2889
S'upon'
p2890
aI1444
aa(lp2891
S'rapidly'
p2892
aI1445
aa(lp2893
S'fun'
p2894
aI1446
aa(lp2895
S'rose'
p2896
aI1447
aa(lp2897
S'pose'
p2898
aI1448
aa(lp2899
S'content'
p2900
aI1449
aa(lp2901
S'flip'
p2902
aI1450
aa(lp2903
S'limb'
p2904
aI1451
aa(lp2905
S'poking'
p2906
aI1452
aa(lp2907
S'mound'
p2908
aI1453
aa(lp2909
S'scratching'
p2910
aI1454
aa(lp2911
S'serious'
p2912
aI1455
aa(lp2913
S'flips'
p2914
aI1456
aa(lp2915
S'Dogs'
p2916
aI1457
aa(lp2917
S'distant'
p2918
aI1458
aa(lp2919
S'mouth.'
p2920
aI1459
aa(lp2921
S'blade'
p2922
aI1460
aa(lp2923
S'classic'
p2924
aI1461
aa(lp2925
S'Frisbee'
p2926
aI1462
aa(lp2927
S'hot'
p2928
aI1463
aa(lp2929
S'boxer'
p2930
aI1464
aa(lp2931
S'flipping'
p2932
aI1465
aa(lp2933
S'shades'
p2934
aI1466
aa(lp2935
S'scouts'
p2936
aI1467
aa(lp2937
S'runners'
p2938
aI1468
aa(lp2939
S'hamster'
p2940
aI1469
aa(lp2941
S'slipper'
p2942
aI1470
aa(lp2943
S'barrier'
p2944
aI1471
aa(lp2945
S'absently'
p2946
aI1472
aa(lp2947
S'corn'
p2948
aI1473
aa(lp2949
S'beige'
p2950
aI1474
aa(lp2951
S'pistol'
p2952
aI1475
aa(lp2953
S'dance'
p2954
aI1476
aa(lp2955
S'rock.'
p2956
aI1477
aa(lp2957
S'cucumbers'
p2958
aI1478
aa(lp2959
S'bread,'
p2960
aI1479
aa(lp2961
S'hats'
p2962
aI1480
aa(lp2963
S'funnily'
p2964
aI1481
aa(lp2965
S'pulled'
p2966
aI1482
aa(lp2967
S'shelf'
p2968
aI1483
aa(lp2969
S'wok'
p2970
aI1484
aa(lp2971
S'fair'
p2972
aI1485
aa(lp2973
S'hose'
p2974
aI1486
aa(lp2975
S'hammering'
p2976
aI1487
aa(lp2977
S't-ball'
p2978
aI1488
aa(lp2979
S'tee'
p2980
aI1489
aa(lp2981
S'route'
p2982
aI1490
aa(lp2983
S'handicapped'
p2984
aI1491
aa(lp2985
S'calculating'
p2986
aI1492
aa(lp2987
S'instruments'
p2988
aI1493
aa(lp2989
S'flaring'
p2990
aI1494
aa(lp2991
S'reserved'
p2992
aI1495
aa(lp2993
S'frame'
p2994
aI1496
aa(lp2995
S'teammates'
p2996
aI1497
aa(lp2997
S'bedroom'
p2998
aI1498
aa(lp2999
S'fitting'
p3000
aI1499
aa(lp3001
S'pack'
p3002
aI1500
aa(lp3003
S'note'
p3004
aI1501
aa(lp3005
S'gracefully'
p3006
aI1502
aa(lp3007
S'eastern'
p3008
aI1503
aa(lp3009
S'arm.'
p3010
aI1504
aa(lp3011
S'bent'
p3012
aI1505
aa(lp3013
S'scaring'
p3014
aI1506
aa(lp3015
S'rowing'
p3016
aI1507
aa(lp3017
S'silver'
p3018
aI1508
aa(lp3019
S'fingernails'
p3020
aI1509
aa(lp3021
S'lowering'
p3022
aI1510
aa(lp3023
S'checkered'
p3024
aI1511
aa(lp3025
S'whacking'
p3026
aI1512
aa(lp3027
S'tires'
p3028
aI1513
aa(lp3029
S'fixing'
p3030
aI1514
aa(lp3031
S'drying'
p3032
aI1515
aa(lp3033
S'space'
p3034
aI1516
aa(lp3035
S'music'
p3036
aI1517
aa(lp3037
S'practitioner'
p3038
aI1518
aa(lp3039
S'bonfire'
p3040
aI1519
aa(lp3041
S'dresses'
p3042
aI1520
aa(lp3043
S'chased'
p3044
aI1521
aa(lp3045
S'guided'
p3046
aI1522
aa(lp3047
S'gate'
p3048
aI1523
aa(lp3049
S'lifted'
p3050
aI1524
aa(lp3051
S'presentation'
p3052
aI1525
aa(lp3053
S'attacking'
p3054
aI1526
aa(lp3055
S'fight'
p3056
aI1527
aa(lp3057
S"aren't"
p3058
aI1528
aa(lp3059
S'nearby'
p3060
aI1529
aa(lp3061
S'abruptly'
p3062
aI1530
aa(lp3063
S'amphitheater'
p3064
aI1531
aa(lp3065
S'suspiciously'
p3066
aI1532
aa(lp3067
S'racers'
p3068
aI1533
aa(lp3069
S'furiously'
p3070
aI1534
aa(lp3071
S'dough'
p3072
aI1535
aa(lp3073
S'daschunds'
p3074
aI1536
aa(lp3075
S'Many'
p3076
aI1537
aa(lp3077
S'artificially'
p3078
aI1538
aa(lp3079
S'washing'
p3080
aI1539
aa(lp3081
S'equipped'
p3082
aI1540
aa(lp3083
S'protection'
p3084
aI1541
aa(lp3085
S'Butter'
p3086
aI1542
aa(lp3087
S'Various'
p3088
aI1543
aa(lp3089
S'lights'
p3090
aI1544
aa(lp3091
S'during'
p3092
aI1545
aa(lp3093
S'crying'
p3094
aI1546
aa(lp3095
S'shaving'
p3096
aI1547
aa(lp3097
S'surprised'
p3098
aI1548
aa(lp3099
S'measuring'
p3100
aI1549
aa(lp3101
S'planting'
p3102
aI1550
aa(lp3103
S'hit'
p3104
aI1551
aa(lp3105
S'man,'
p3106
aI1552
aa(lp3107
S'arranging'
p3108
aI1553
aa(lp3109
S'hungry'
p3110
aI1554
aa(lp3111
S'Asia,'
p3112
aI1555
aa(lp3113
S'marsh'
p3114
aI1556
aa(lp3115
S'shrewdly'
p3116
aI1557
aa(lp3117
S'shirt,'
p3118
aI1558
aa(lp3119
S'snowsuits'
p3120
aI1559
aa(lp3121
S'sprayed'
p3122
aI1560
aa(lp3123
S'old,'
p3124
aI1561
aa(lp3125
S'stump'
p3126
aI1562
aa(lp3127
S'fearlessly'
p3128
aI1563
aa(lp3129
S'eyebrow'
p3130
aI1564
aa(lp3131
S'spinning'
p3132
aI1565
aa(lp3133
S'muzzles'
p3134
aI1566
aa(lp3135
S'monitor'
p3136
aI1567
aa(lp3137
S'road,'
p3138
aI1568
aa(lp3139
S'ribbon'
p3140
aI1569
aa(lp3141
S'twirling'
p3142
aI1570
aa(lp3143
S'sheepdog'
p3144
aI1571
aa(lp3145
S'touching'
p3146
aI1572
aa(lp3147
S'guys'
p3148
aI1573
aa(lp3149
S'coat,'
p3150
aI1574
aa(lp3151
S'sofa'
p3152
aI1575
aa(lp3153
S'gravel'
p3154
aI1576
aa(lp3155
S'caught'
p3156
aI1577
aa(lp3157
S'wrestling'
p3158
aI1578
aa(lp3159
S'sausages'
p3160
aI1579
aa(lp3161
S'filling'
p3162
aI1580
aa(lp3163
S'excitement'
p3164
aI1581
aa(lp3165
S'Runners'
p3166
aI1582
aa(lp3167
S'Racers'
p3168
aI1583
aa(lp3169
S'footballer'
p3170
aI1584
aa(lp3171
S'stuffed'
p3172
aI1585
aa(lp3173
S'ear'
p3174
aI1586
aa(lp3175
S'branch'
p3176
aI1587
aa(lp3177
S'pristine,'
p3178
aI1588
aa(lp3179
S'graphitized'
p3180
aI1589
aa(lp3181
S'slowing'
p3182
aI1590
aa(lp3183
S'animated'
p3184
aI1591
aa(lp3185
S'penciling'
p3186
aI1592
aa(lp3187
S'room,'
p3188
aI1593
aa(lp3189
S'farm'
p3190
aI1594
aa(lp3191
S'erase'
p3192
aI1595
aa(lp3193
S'digital'
p3194
aI1596
aa(lp3195
S'buttons'
p3196
aI1597
aa(lp3197
S'bellbottoms'
p3198
aI1598
aa(lp3199
S'squeezing'
p3200
aI1599
aa(lp3201
S'pants,'
p3202
aI1600
aa(lp3203
S'sailing'
p3204
aI1601
aa(lp3205
S'kennel'
p3206
aI1602
aa(lp3207
S'rod'
p3208
aI1603
aa(lp3209
S'bottles'
p3210
aI1604
aa(lp3211
S'railing'
p3212
aI1605
aa(lp3213
S'strolling'
p3214
aI1606
aa(lp3215
S'south'
p3216
aI1607
aa(lp3217
S'African'
p3218
aI1608
aa(lp3219
S'accident'
p3220
aI1609
aa(lp3221
S'Swimmers'
p3222
aI1610
aa(lp3223
S'heavily'
p3224
aI1611
aa(lp3225
S'dusty'
p3226
aI1612
aa(lp3227
S'men,'
p3228
aI1613
aa(lp3229
S'Football'
p3230
aI1614
aa(lp3231
S'ladies'
p3232
aI1615
aa(lp3233
S'heels'
p3234
aI1616
aa(lp3235
S'swimmer'
p3236
aI1617
aa(lp3237
S'dancer'
p3238
aI1618
aa(lp3239
S'land'
p3240
aI1619
aa(lp3241
S'opened'
p3242
aI1620
aa(lp3243
S'bars'
p3244
aI1621
aa(lp3245
S'lipstick'
p3246
aI1622
aa(lp3247
S'phoning'
p3248
aI1623
aa(lp3249
S'splashed'
p3250
aI1624
aa(lp3251
S'furniture'
p3252
aI1625
aa(lp3253
S'palm'
p3254
aI1626
aa(lp3255
S'fancy'
p3256
aI1627
aa(lp3257
S'seashore'
p3258
aI1628
aa(lp3259
S'pajamas'
p3260
aI1629
aa(lp3261
S'hardwood'
p3262
aI1630
aa(lp3263
S'interior'
p3264
aI1631
aa(lp3265
S'grotto'
p3266
aI1632
aa(lp3267
S'performer'
p3268
aI1633
aa(lp3269
S'tie'
p3270
aI1634
aa(lp3271
S'difficultly'
p3272
aI1635
aa(lp3273
S'Guitar'
p3274
aI1636
aa(lp3275
S'mittened'
p3276
aI1637
aa(lp3277
S'pasta'
p3278
aI1638
aa(lp3279
S'goo'
p3280
aI1639
aa(lp3281
S'upside-down'
p3282
aI1640
aa(lp3283
S'sticky'
p3284
aI1641
aa(lp3285
S'purse'
p3286
aI1642
aa(lp3287
S'word'
p3288
aI1643
aa(lp3289
S'skit'
p3290
aI1644
aa(lp3291
S'breathlessly'
p3292
aI1645
aa(lp3293
S'saying'
p3294
aI1646
aa(lp3295
S'carpeted'
p3296
aI1647
aa(lp3297
S'cleaner'
p3298
aI1648
aa(lp3299
S'repairing'
p3300
aI1649
aa(lp3301
S'bin'
p3302
aI1650
aa(lp3303
S'waste'
p3304
aI1651
aa(lp3305
S'drawn'
p3306
aI1652
aa(lp3307
S'scattering'
p3308
aI1653
aa(lp3309
S'stroking'
p3310
aI1654
aa(lp3311
S'warm'
p3312
aI1655
aa(lp3313
S'paperwork'
p3314
aI1656
aa(lp3315
S'liner'
p3316
aI1657
aa(lp3317
S'burrowing'
p3318
aI1658
aa(lp3319
S'starting'
p3320
aI1659
aa(lp3321
S'beak'
p3322
aI1660
aa(lp3323
S'pausing'
p3324
aI1661
aa(lp3325
S'lots'
p3326
aI1662
aa(lp3327
S'investigating'
p3328
aI1663
aa(lp3329
S'jewelry'
p3330
aI1664
aa(lp3331
S'tricking'
p3332
aI1665
aa(lp3333
S'silky'
p3334
aI1666
aa(lp3335
S'raw'
p3336
aI1667
aa(lp3337
S'shoulders'
p3338
aI1668
aa(lp3339
S'suited'
p3340
aI1669
aa(lp3341
S'multicolor'
p3342
aI1670
aa(lp3343
S'leaf'
p3344
aI1671
aa(lp3345
S'Soccer'
p3346
aI1672
aa(lp3347
S'roped'
p3348
aI1673
aa(lp3349
S'dogs,'
p3350
aI1674
aa(lp3351
S'square'
p3352
aI1675
aa(lp3353
S'Kids'
p3354
aI1676
aa(lp3355
S'vehicles'
p3356
aI1677
aa(lp3357
S'puppies'
p3358
aI1678
aa(lp3359
S'flag'
p3360
aI1679
aa(lp3361
S'closed'
p3362
aI1680
aa(lp3363
S'motorbikes'
p3364
aI1681
aa(lp3365
S'kiddies'
p3366
aI1682
aa(lp3367
S'reaching'
p3368
aI1683
aa(lp3369
S'fiercely'
p3370
aI1684
aa(lp3371
S'retriever'
p3372
aI1685
aa(lp3373
S'kissed'
p3374
aI1686
aa(lp3375
S'jumps'
p3376
aI1687
aa(lp3377
S'fresh'
p3378
aI1688
aa(lp3379
S'swimsuits'
p3380
aI1689
aa(lp3381
S'retrieving'
p3382
aI1690
aa(lp3383
S'wheeled'
p3384
aI1691
aa(lp3385
S'fast'
p3386
aI1692
aa(lp3387
S'loudly'
p3388
aI1693
aa(lp3389
S'clustered'
p3390
aI1694
aa(lp3391
S'looked'
p3392
aI1695
aa(lp3393
S'hikers'
p3394
aI1696
aa(lp3395
S'plant'
p3396
aI1697
aa(lp3397
S'smearing'
p3398
aI1698
aa(lp3399
S'wildly'
p3400
aI1699
aa(lp3401
S'cosmetics'
p3402
aI1700
aa(lp3403
S'shop'
p3404
aI1701
aa(lp3405
S'kettle'
p3406
aI1702
aa(lp3407
S'nailing'
p3408
aI1703
aa(lp3409
S'eyebrows'
p3410
aI1704
aa(lp3411
S'hammer'
p3412
aI1705
aa(lp3413
S'famous'
p3414
aI1706
aa(lp3415
S'fountains'
p3416
aI1707
aa(lp3417
S'substance'
p3418
aI1708
aa(lp3419
S'smeared'
p3420
aI1709
aa(lp3421
S'town'
p3422
aI1710
aa(lp3423
S'untying'
p3424
aI1711
aa(lp3425
S'soup'
p3426
aI1712
aa(lp3427
S'laden'
p3428
aI1713
aa(lp3429
S'bib'
p3430
aI1714
aa(lp3431
S'Pieces'
p3432
aI1715
aa(lp3433
S'toys'
p3434
aI1716
aa(lp3435
S'Video'
p3436
aI1717
aa(lp3437
S'charity'
p3438
aI1718
aa(lp3439
S'calmly'
p3440
aI1719
aa(lp3441
S'henna'
p3442
aI1720
aa(lp3443
S'shiny'
p3444
aI1721
aa(lp3445
S'boulder'
p3446
aI1722
aa(lp3447
S'crocheting'
p3448
aI1723
aa(lp3449
S'styling'
p3450
aI1724
aa(lp3451
S'wakeboarding'
p3452
aI1725
aa(lp3453
S'pictures'
p3454
aI1726
aa(lp3455
S'number'
p3456
aI1727
aa(lp3457
S'rollerbladers'
p3458
aI1728
aa(lp3459
S'mitt'
p3460
aI1729
aa(lp3461
S'floating'
p3462
aI1730
aa(lp3463
S"someone's"
p3464
aI1731
aa(lp3465
S'lining'
p3466
aI1732
aa(lp3467
S'strumming'
p3468
aI1733
aa(lp3469
S'sugar'
p3470
aI1734
aa(lp3471
S'holes'
p3472
aI1735
aa(lp3473
S'indoor'
p3474
aI1736
aa(lp3475
S'herding'
p3476
aI1737
aa(lp3477
S'or'
p3478
aI1738
aa(lp3479
S'screen'
p3480
aI1739
aa(lp3481
S'marriage'
p3482
aI1740
aa(lp3483
S'thrown'
p3484
aI1741
aa(lp3485
S'folded'
p3486
aI1742
aa(lp3487
S'arriving'
p3488
aI1743
aa(lp3489
S'trip'
p3490
aI1744
aa(lp3491
S'camping'
p3492
aI1745
aa(lp3493
S'donations'
p3494
aI1746
aa(lp3495
S'bricks'
p3496
aI1747
aa(lp3497
S'male,'
p3498
aI1748
aa(lp3499
S'Cereal'
p3500
aI1749
aa(lp3501
S'attended'
p3502
aI1750
aa(lp3503
S'skinned,'
p3504
aI1751
aa(lp3505
S'soldiers'
p3506
aI1752
aa(lp3507
S'shoeless,'
p3508
aI1753
aa(lp3509
S'range'
p3510
aI1754
aa(lp3511
S'Skewers'
p3512
aI1755
aa(lp3513
S"doesn't"
p3514
aI1756
aa(lp3515
S'clinging'
p3516
aI1757
aa(lp3517
S'fruit'
p3518
aI1758
aa(lp3519
S'window,'
p3520
aI1759
aa(lp3521
S'themselves'
p3522
aI1760
aa(lp3523
S'older'
p3524
aI1761
aa(lp3525
S'designed'
p3526
aI1762
aa(lp3527
S'bikes,'
p3528
aI1763
aa(lp3529
S'patio'
p3530
aI1764
aa(lp3531
S'funny,'
p3532
aI1765
aa(lp3533
S'plywood'
p3534
aI1766
aa(lp3535
S'cleansing'
p3536
aI1767
aa(lp3537
S'runner'
p3538
aI1768
aa(lp3539
S'midspeech'
p3540
aI1769
aa(lp3541
S'quiet'
p3542
aI1770
aa(lp3543
S'purchasing'
p3544
aI1771
aa(lp3545
S'blurry'
p3546
aI1772
aa(lp3547
S'tattered'
p3548
aI1773
aa(lp3549
S'cloak,'
p3550
aI1774
aa(lp3551
S'ropes'
p3552
aI1775
aa(lp3553
S'revealing'
p3554
aI1776
aa(lp3555
S'extravagant'
p3556
aI1777
aa(lp3557
S'gymnastic'
p3558
aI1778
aa(lp3559
S'storing'
p3560
aI1779
aa(lp3561
S'teaming'
p3562
aI1780
aa(lp3563
S'helmets'
p3564
aI1781
aa(lp3565
S'age'
p3566
aI1782
aa(lp3567
S'age,'
p3568
aI1783
aa(lp3569
S'jar'
p3570
aI1784
aa(lp3571
S'passing'
p3572
aI1785
aa(lp3573
S'grouped'
p3574
aI1786
aa(lp3575
S'drummer'
p3576
aI1787
aa(lp3577
S'things'
p3578
aI1788
aa(lp3579
S'owns'
p3580
aI1789
aa(lp3581
S'holiday'
p3582
aI1790
aa(lp3583
S'signboard'
p3584
aI1791
aa(lp3585
S'Dirt'
p3586
aI1792
aa(lp3587
S'veteran'
p3588
aI1793
aa(lp3589
S'dyeing'
p3590
aI1794
aa(lp3591
S'followed'
p3592
aI1795
aa(lp3593
S'conversation'
p3594
aI1796
aa(lp3595
S'backwards'
p3596
aI1797
aa(lp3597
S'war'
p3598
aI1798
aa(lp3599
S'sprays'
p3600
aI1799
aa(lp3601
S'steel'
p3602
aI1800
aa(lp3603
S'relaxing'
p3604
aI1801
aa(lp3605
S'weights'
p3606
aI1802
aa(lp3607
S'cows'
p3608
aI1803
aa(lp3609
S'occidental'
p3610
aI1804
aa(lp3611
S'school'
p3612
aI1805
aa(lp3613
S'blokes'
p3614
aI1806
aa(lp3615
S'children,'
p3616
aI1807
aa(lp3617
S'daughters'
p3618
aI1808
aa(lp3619
S'skate'
p3620
aI1809
aa(lp3621
S'jacket,'
p3622
aI1810
aa(lp3623
S'playground'
p3624
aI1811
aa(lp3625
S'none'
p3626
aI1812
aa(lp3627
S'lookers'
p3628
aI1813
aa(lp3629
S'differently'
p3630
aI1814
aa(lp3631
S'casual'
p3632
aI1815
aa(lp3633
S'fashion'
p3634
aI1816
aa(lp3635
S'listlessly'
p3636
aI1817
aa(lp3637
S'purple,'
p3638
aI1818
aa(lp3639
S'cluster'
p3640
aI1819
aa(lp3641
S"child's"
p3642
aI1820
aa(lp3643
S'elaborate'
p3644
aI1821
aa(lp3645
S'walk'
p3646
aI1822
aa(lp3647
S'sniffed'
p3648
aI1823
aa(lp3649
S'flight'
p3650
aI1824
aa(lp3651
S'study'
p3652
aI1825
aa(lp3653
S'blonds'
p3654
aI1826
aa(lp3655
S'carpet'
p3656
aI1827
aa(lp3657
S'maneuvering'
p3658
aI1828
aa(lp3659
S'noses'
p3660
aI1829
aa(lp3661
S'launch'
p3662
aI1830
aa(lp3663
S'coin'
p3664
aI1831
aa(lp3665
S'pool,'
p3666
aI1832
aa(lp3667
S'social'
p3668
aI1833
aa(lp3669
S'bright'
p3670
aI1834
aa(lp3671
S'perch'
p3672
aI1835
aa(lp3673
S'foamy'
p3674
aI1836
aa(lp3675
S'waters'
p3676
aI1837
aa(lp3677
S'drum'
p3678
aI1838
aa(lp3679
S'climbers'
p3680
aI1839
aa(lp3681
S'wall.'
p3682
aI1840
aa(lp3683
S'gentle'
p3684
aI1841
aa(lp3685
S'midair'
p3686
aI1842
aa(lp3687
S'kayaking'
p3688
aI1843
aa(lp3689
S'hills'
p3690
aI1844
aa(lp3691
S'angrily'
p3692
aI1845
aa(lp3693
S'program'
p3694
aI1846
aa(lp3695
S'various'
p3696
aI1847
aa(lp3697
S'dashing'
p3698
aI1848
aa(lp3699
S'via'
p3700
aI1849
aa(lp3701
S'immobile'
p3702
aI1850
aa(lp3703
S'greedily'
p3704
aI1851
aa(lp3705
S'sleeved'
p3706
aI1852
aa(lp3707
S'speech'
p3708
aI1853
aa(lp3709
S'handing'
p3710
aI1854
aa(lp3711
S'eagerly'
p3712
aI1855
aa(lp3713
S"water's"
p3714
aI1856
aa(lp3715
S'telephonic'
p3716
aI1857
aa(lp3717
S'shrewd,'
p3718
aI1858
aa(lp3719
S'schoolgirl'
p3720
aI1859
aa(lp3721
S'losing'
p3722
aI1860
aa(lp3723
S'unfolding'
p3724
aI1861
aa(lp3725
S'speedily'
p3726
aI1862
aa(lp3727
S'dirtying'
p3728
aI1863
aa(lp3729
S'bun'
p3730
aI1864
aa(lp3731
S'grating'
p3732
aI1865
aa(lp3733
S'badger,'
p3734
aI1866
aa(lp3735
S'car,'
p3736
aI1867
aa(lp3737
S'polished'
p3738
aI1868
aa(lp3739
S'pitcher'
p3740
aI1869
aa(lp3741
S'peppering'
p3742
aI1870
aa(lp3743
S'fists'
p3744
aI1871
aa(lp3745
S'Young'
p3746
aI1872
aa(lp3747
S'Boys'
p3748
aI1873
aa(lp3749
S'bald'
p3750
aI1874
aa(lp3751
S'heartily'
p3752
aI1875
aa(lp3753
S'escaping'
p3754
aI1876
aa(lp3755
S'diced'
p3756
aI1877
aa(lp3757
S'staging'
p3758
aI1878
aa(lp3759
S'rollerblader'
p3760
aI1879
aa(lp3761
S'batter'
p3762
aI1880
aa(lp3763
S'stupidly'
p3764
aI1881
aa(lp3765
S'shredding'
p3766
aI1882
aa(lp3767
S'Potatoes'
p3768
aI1883
aa(lp3769
S'dunes'
p3770
aI1884
aa(lp3771
S'Eyeshadow'
p3772
aI1885
aa(lp3773
S'packed'
p3774
aI1886
aa(lp3775
S'fearfully'
p3776
aI1887
aa(lp3777
S'intense'
p3778
aI1888
aa(lp3779
S'be'
p3780
aI1889
aa(lp3781
S"cat's"
p3782
aI1890
aa(lp3783
S'prawn'
p3784
aI1891
aa(lp3785
S'spray'
p3786
aI1892
aa(lp3787
S'beard'
p3788
aI1893
aa(lp3789
S'nervously'
p3790
aI1894
aa(lp3791
S'carnival'
p3792
aI1895
aa(lp3793
S'stitched'
p3794
aI1896
aa(lp3795
S'hunger'
p3796
aI1897
aa(lp3797
S'running,'
p3798
aI1898
aa(lp3799
S'cards'
p3800
aI1899
aa(lp3801
S'helps'
p3802
aI1900
aa(lp3803
S'Drinking'
p3804
aI1901
aa(lp3805
S'mindlessly'
p3806
aI1902
aa(lp3807
S'denying'
p3808
aI1903
aa(lp3809
S'circle'
p3810
aI1904
aa(lp3811
S'granted'
p3812
aI1905
aa(lp3813
S'open.'
p3814
aI1906
aa(lp3815
S'Animals'
p3816
aI1907
aa(lp3817
S'musician'
p3818
aI1908
aa(lp3819
S'magician'
p3820
aI1909
aa(lp3821
S'acting'
p3822
aI1910
aa(lp3823
S'ball,'
p3824
aI1911
aa(lp3825
S'cartoon'
p3826
aI1912
aa(lp3827
S'kid,'
p3828
aI1913
aa(lp3829
S'stair'
p3830
aI1914
aa(lp3831
S'automobile'
p3832
aI1915
aa(lp3833
S'ankle'
p3834
aI1916
aa(lp3835
S'Ferrets'
p3836
aI1917
aa(lp3837
S'aim'
p3838
aI1918
aa(lp3839
S'shunning'
p3840
aI1919
aa(lp3841
S'repeatedly'
p3842
aI1920
aa(lp3843
S'cob'
p3844
aI1921
aa(lp3845
S'caged'
p3846
aI1922
aa(lp3847
S'magic,'
p3848
aI1923
aa(lp3849
S'like'
p3850
aI1924
aa(lp3851
S'rainy'
p3852
aI1925
aa(lp3853
S'rinsed'
p3854
aI1926
aa(lp3855
S'flyaway'
p3856
aI1927
aa(lp3857
S'skater'
p3858
aI1928
aa(lp3859
S'bullets'
p3860
aI1929
aa(lp3861
S'courageously'
p3862
aI1930
aa(lp3863
S'walks'
p3864
aI1931
aa(lp3865
S'working'
p3866
aI1932
aa(lp3867
S'bred'
p3868
aI1933
aa(lp3869
S'skit,'
p3870
aI1934
aa(lp3871
S'mowed'
p3872
aI1935
aa(lp3873
S'Grass'
p3874
aI1936
aa(lp3875
S'requires'
p3876
aI1937
aa(lp3877
S'targeted'
p3878
aI1938
aa(lp3879
S'playful'
p3880
aI1939
aa(lp3881
S'communicating'
p3882
aI1940
aa(lp3883
S'stairs'
p3884
aI1941
aa(lp3885
S'shining'
p3886
aI1942
aa(lp3887
S'roaring'
p3888
aI1943
aa(lp3889
S'camel'
p3890
aI1944
aa(lp3891
S'amusedly'
p3892
aI1945
aa(lp3893
S'directions'
p3894
aI1946
aa(lp3895
S'plays'
p3896
aI1947
aa(lp3897
S'graffiti'
p3898
aI1948
aa(lp3899
S'crane,'
p3900
aI1949
aa(lp3901
S'run'
p3902
aI1950
aa(lp3903
S'fully'
p3904
aI1951
aa(lp3905
S'tailing'
p3906
aI1952
aa(lp3907
S'sledgehammer'
p3908
aI1953
aa(lp3909
S'splashes'
p3910
aI1954
aa(lp3911
S'watered'
p3912
aI1955
aa(lp3913
S'cowboys'
p3914
aI1956
aa(lp3915
S'bears'
p3916
aI1957
aa(lp3917
S'block'
p3918
aI1958
aa(lp3919
S'cowgirl'
p3920
aI1959
aa(lp3921
S'Ingredients'
p3922
aI1960
aa(lp3923
S'open-air'
p3924
aI1961
aa(lp3925
S'Noodles'
p3926
aI1962
aa(lp3927
S'puking'
p3928
aI1963
aa(lp3929
S'cheers'
p3930
aI1964
aa(lp3931
S'buildings'
p3932
aI1965
aa(lp3933
S'metallic'
p3934
aI1966
aa(lp3935
S'suffering'
p3936
aI1967
aa(lp3937
S'vicinity'
p3938
aI1968
aa(lp3939
S'clung'
p3940
aI1969
aa(lp3941
S'whisked'
p3942
aI1970
aa(lp3943
S'loading'
p3944
aI1971
aa(lp3945
S'guns'
p3946
aI1972
aa(lp3947
S'chimp'
p3948
aI1973
aa(lp3949
S'alligator'
p3950
aI1974
aa(lp3951
S'patting'
p3952
aI1975
aa(lp3953
S'alongside'
p3954
aI1976
aa(lp3955
S'sheets'
p3956
aI1977
aa(lp3957
S'noisily'
p3958
aI1978
aa(lp3959
S'sketch'
p3960
aI1979
aa(lp3961
S'costumed'
p3962
aI1980
aa(lp3963
S'rusty'
p3964
aI1981
aa(lp3965
S'whole'
p3966
aI1982
aa(lp3967
S'silently'
p3968
aI1983
aa(lp3969
S'sung'
p3970
aI1984
aa(lp3971
S'voraciously'
p3972
aI1985
aa(lp3973
S'loud'
p3974
aI1986
aa(lp3975
S'OR'
p3976
aI1987
aa(lp3977
S'teach'
p3978
aI1988
aa(lp3979
S"woman's"
p3980
aI1989
aa(lp3981
S'preservers'
p3982
aI1990
aa(lp3983
S'upside'
p3984
aI1991
aa(lp3985
S'shouting'
p3986
aI1992
aa(lp3987
S'battling'
p3988
aI1993
aa(lp3989
S'safety'
p3990
aI1994
aa(lp3991
S'read'
p3992
aI1995
aa(lp3993
S'This'
p3994
aI1996
aa(lp3995
S'races'
p3996
aI1997
aa(lp3997
S'kicked'
p3998
aI1998
aa(lp3999
S"monkey's"
p4000
aI1999
aa(lp4001
S'Something'
p4002
aI2000
aa(lp4003
S'teased'
p4004
aI2001
aa(lp4005
S'selling'
p4006
aI2002
aa(lp4007
S'pull-ups'
p4008
aI2003
aa(lp4009
S'toddling'
p4010
aI2004
aa(lp4011
S'onstage'
p4012
aI2005
aa(lp4013
S'where'
p4014
aI2006
aa(lp4015
S'eyebrow,'
p4016
aI2007
aa(lp4017
S'greatly'
p4018
aI2008
aa(lp4019
S'appealing'
p4020
aI2009
aa(lp4021
S'leap'
p4022
aI2010
aa(lp4023
S'snowboarders'
p4024
aI2011
aa(lp4025
S'Mud'
p4026
aI2012
aa(lp4027
S'measured'
p4028
aI2013
aa(lp4029
S'sharpened'
p4030
aI2014
aa(lp4031
S'amusing'
p4032
aI2015
aa(lp4033
S'sold'
p4034
aI2016
aa(lp4035
S'extracting'
p4036
aI2017
aa(lp4037
S'loving'
p4038
aI2018
aa(lp4039
S'casually'
p4040
aI2019
aa(lp4041
S'chatting'
p4042
aI2020
aa(lp4043
S'hiring'
p4044
aI2021
aa(lp4045
S'strong'
p4046
aI2022
aa(lp4047
S'lick'
p4048
aI2023
aa(lp4049
S'oiled'
p4050
aI2024
aa(lp4051
S'given'
p4052
aI2025
aa(lp4053
S'ruffling'
p4054
aI2026
aa(lp4055
S'scolding'
p4056
aI2027
aa(lp4057
S'win'
p4058
aI2028
aa(lp4059
S'crack'
p4060
aI2029
aa(lp4061
S'cast'
p4062
aI2030
aa(lp4063
S'dices'
p4064
aI2031
aa(lp4065
S'spices'
p4066
aI2032
aa(lp4067
S'tough'
p4068
aI2033
aa(lp4069
S'tomatoes.'
p4070
aI2034
aa(lp4071
S'hammered'
p4072
aI2035
aa(lp4073
S'pours'
p4074
aI2036
aa(lp4075
S'patiently'
p4076
aI2037
aa(lp4077
S'picked'
p4078
aI2038
aa(lp4079
S'lumping'
p4080
aI2039
aa(lp4081
S'Dough'
p4082
aI2040
aa(lp4083
S'pianist'
p4084
aI2041
aa(lp4085
S'riskily'
p4086
aI2042
aa(lp4087
S'roasting'
p4088
aI2043
aa(lp4089
S'part'
p4090
aI2044
aa(lp4091
S'rhino,'
p4092
aI2045
aa(lp4093
S'asleep'
p4094
aI2046
aa(lp4095
S'skirt,'
p4096
aI2047
aa(lp4097
S'hairy'
p4098
aI2048
aa(lp4099
S'lap'
p4100
aI2049
aa(lp4101
S'armbands'
p4102
aI2050
aa(lp4103
S'weather,'
p4104
aI2051
aa(lp4105
S'smoked'
p4106
aI2052
aa(lp4107
S'bus'
p4108
aI2053
aa(lp4109
S'spilling'
p4110
aI2054
aa(lp4111
S'watch'
p4112
aI2055
aa(lp4113
S'Blue'
p4114
aI2056
aa(lp4115
S'sad'
p4116
aI2057
aa(lp4117
S'happy,'
p4118
aI2058
aa(lp4119
S'family,'
p4120
aI2059
aa(lp4121
S'bmxs'
p4122
aI2060
aa(lp4123
S'flies'
p4124
aI2061
aa(lp4125
S'ducks'
p4126
aI2062
aa(lp4127
S'rocks,'
p4128
aI2063
aa(lp4129
S'peering'
p4130
aI2064
aa(lp4131
S'elegantly'
p4132
aI2065
aa(lp4133
S'smashing'
p4134
aI2066
aa(lp4135
S'staircase'
p4136
aI2067
aa(lp4137
S'challengingly'
p4138
aI2068
aa(lp4139
S'guarding'
p4140
aI2069
aa(lp4141
S'taken'
p4142
aI2070
aa(lp4143
S'amazedly'
p4144
aI2071
aa(lp4145
S'let'
p4146
aI2072
aa(lp4147
S'go'
p4148
aI2073
aa(lp4149
S'Motorbikes'
p4150
aI2074
aa(lp4151
S'deleting'
p4152
aI2075
aa(lp4153
S'foreground'
p4154
aI2076
aa(lp4155
S'elder'
p4156
aI2077
aa(lp4157
S'Tambourines'
p4158
aI2078
aa(lp4159
S'cloth'
p4160
aI2079
aa(lp4161
S'living'
p4162
aI2080
aa(lp4163
S'stuntman'
p4164
aI2081
aa(lp4165
S'model'
p4166
aI2082
aa(lp4167
S'enemies'
p4168
aI2083
aa(lp4169
S'grinding'
p4170
aI2084
aa(lp4171
S'rollerblades'
p4172
aI2085
aa(lp4173
S'blooming'
p4174
aI2086
aa(lp4175
S'grabbed'
p4176
aI2087
aa(lp4177
S'all'
p4178
aI2088
aa(lp4179
S'morning'
p4180
aI2089
aa(lp4181
S'short'
p4182
aI2090
aa(lp4183
S'investigate'
p4184
aI2091
aa(lp4185
S'splash'
p4186
aI2092
aa(lp4187
S'Sunglasses'
p4188
aI2093
aa(lp4189
S'aged'
p4190
aI2094
aa(lp4191
S'wears'
p4192
aI2095
aa(lp4193
S'piercings'
p4194
aI2096
aa(lp4195
S'eyebrows,'
p4196
aI2097
aa(lp4197
S'Drinks'
p4198
aI2098
aa(lp4199
S'waterfall,'
p4200
aI2099
aa(lp4201
S'flames'
p4202
aI2100
aa(lp4203
S'drag'
p4204
aI2101
aa(lp4205
S'harping'
p4206
aI2102
aa(lp4207
S'baby,'
p4208
aI2103
aa(lp4209
S'kangaroo,'
p4210
aI2104
aa(lp4211
S'jumpers'
p4212
aI2105
aa(lp4213
S'raining'
p4214
aI2106
aa(lp4215
S'It'
p4216
aI2107
aa(lp4217
S'handled'
p4218
aI2108
aa(lp4219
S'lazing'
p4220
aI2109
aa(lp4221
S'disassembling'
p4222
aI2110
aa(lp4223
S'Okra'
p4224
aI2111
aa(lp4225
S'Garlic'
p4226
aI2112
aa(lp4227
S'serving'
p4228
aI2113
aa(lp4229
S'stationed'
p4230
aI2114
aa(lp4231
S'riders'
p4232
aI2115
aa(lp4233
S'grated'
p4234
aI2116
aa(lp4235
S'Carrots'
p4236
aI2117
aa(lp4237
S'powerfully'
p4238
aI2118
aa(lp4239
S'frightening'
p4240
aI2119
aa(lp4241
S'fasting'
p4242
aI2120
aa(lp4243
S'combed'
p4244
aI2121
aa(lp4245
S'team'
p4246
aI2122
aa(lp4247
S'Weights'
p4248
aI2123
aa(lp4249
S'restraining'
p4250
aI2124
aa(lp4251
S'walked'
p4252
aI2125
aa(lp4253
S'seated,'
p4254
aI2126
aa(lp4255
S'exercise'
p4256
aI2127
aa(lp4257
S'fencing'
p4258
aI2128
aa(lp4259
S'sunset,'
p4260
aI2129
aa(lp4261
S'Makeup'
p4262
aI2130
aa(lp4263
S'font'
p4264
aI2131
aa(lp4265
S'motionless'
p4266
aI2132
aa(lp4267
S'refusing'
p4268
aI2133
aa(lp4269
S'pitifully'
p4270
aI2134
aa(lp4271
S'rocky,'
p4272
aI2135
aa(lp4273
S'mountain,'
p4274
aI2136
aa(lp4275
S'licked'
p4276
aI2137
aa(lp4277
S'Fish'
p4278
aI2138
aa(lp4279
S'cubs'
p4280
aI2139
aa(lp4281
S'petted'
p4282
aI2140
aa(lp4283
S'ham'
p4284
aI2141
aa(lp4285
S'messing'
p4286
aI2142
aa(lp4287
S"boy's"
p4288
aI2143
aa(lp4289
S'corners'
p4290
aI2144
aa(lp4291
S'animal,'
p4292
aI2145
aa(lp4293
S'karaoke'
p4294
aI2146
aa(lp4295
S'policewomen'
p4296
aI2147
aa(lp4297
S'Oil'
p4298
aI2148
aa(lp4299
S'groups'
p4300
aI2149
aa(lp4301
S'Chopped'
p4302
aI2150
aa(lp4303
S'aircraft'
p4304
aI2151
aa(lp4305
S'stroked'
p4306
aI2152
aa(lp4307
S'dismantling'
p4308
aI2153
aa(lp4309
S'hurling'
p4310
aI2154
aa(lp4311
S'cornering'
p4312
aI2155
aa(lp4313
S'boulders'
p4314
aI2156
aa(lp4315
S'tossed'
p4316
aI2157
aa(lp4317
S'pattern'
p4318
aI2158
aa(lp4319
S'wrestlers'
p4320
aI2159
aa(lp4321
S'discarding'
p4322
aI2160
aa(lp4323
S'cover'
p4324
aI2161
aa(lp4325
S'prepared'
p4326
aI2162
aa(lp4327
S'musical'
p4328
aI2163
aa(lp4329
S'manicure'
p4330
aI2164
aa(lp4331
S'furious'
p4332
aI2165
aa(lp4333
S'yelling'
p4334
aI2166
aa(lp4335
S'massaged'
p4336
aI2167
aa(lp4337
S'healing'
p4338
aI2168
aa(lp4339
S'punching'
p4340
aI2169
aa(lp4341
S'falls'
p4342
aI2170
aa(lp4343
S'celebrated'
p4344
aI2171
aa(lp4345
S'tied'
p4346
aI2172
aa(lp4347
S'tirelessly'
p4348
aI2173
aa(lp4349
S'fervently'
p4350
aI2174
aa(lp4351
S'tiles'
p4352
aI2175
aa(lp4353
S'Tiles'
p4354
aI2176
aa(lp4355
S'awakening'
p4356
aI2177
aa(lp4357
S'divinely'
p4358
aI2178
aa(lp4359
S'concentrated'
p4360
aI2179
aa(lp4361
S'violently'
p4362
aI2180
aa(lp4363
S'nicely'
p4364
aI2181
aa(lp4365
S'prawns'
p4366
aI2182
aa(lp4367
S'wagon'
p4368
aI2183
aa(lp4369
S'sheet'
p4370
aI2184
aa(lp4371
S'Sign'
p4372
aI2185
aa(lp4373
S'Seasoning'
p4374
aI2186
aa(lp4375
S'harmlessly'
p4376
aI2187
aa(lp4377
S'swimsuit,'
p4378
aI2188
aa(lp4379
S'sadly'
p4380
aI2189
aa(lp4381
S'closely'
p4382
aI2190
aa(lp4383
S'topless,'
p4384
aI2191
aa(lp4385
S'pack,'
p4386
aI2192
aa(lp4387
S'training'
p4388
aI2193
aa(lp4389
S'bow'
p4390
aI2194
aa(lp4391
S'lunch'
p4392
aI2195
aa(lp4393
S'Hay'
p4394
aI2196
aa(lp4395
S'reloading'
p4396
aI2197
aa(lp4397
S'sledge'
p4398
aI2198
aa(lp4399
S'slab'
p4400
aI2199
aa(lp4401
S'computer'
p4402
aI2200
aa(lp4403
S'laptop'
p4404
aI2201
aa(lp4405
S'failing'
p4406
aI2202
aa(lp4407
S'perform'
p4408
aI2203
aa(lp4409
S'arguing'
p4410
aI2204
aa(lp4411
S'Broccoli'
p4412
aI2205
aa(lp4413
S'blew,'
p4414
aI2206
aa(lp4415
S"girl's"
p4416
aI2207
aa(lp4417
S'red.'
p4418
aI2208
aa(lp4419
S'audience'
p4420
aI2209
aa(lp4421
S'crazily'
p4422
aI2210
aa(lp4423
S'insect'
p4424
aI2211
aa(lp4425
S'cabinet,'
p4426
aI2212
aa(lp4427
S'bangs'
p4428
aI2213
aa(lp4429
S'crocodiles'
p4430
aI2214
aa(lp4431
S'unstitching'
p4432
aI2215
aa(lp4433
S'physical'
p4434
aI2216
aa(lp4435
S'activity'
p4436
aI2217
aa(lp4437
S'interviewer'
p4438
aI2218
aa(lp4439
S'bowl,'
p4440
aI2219
aa(lp4441
S'precisely'
p4442
aI2220
aa(lp4443
S'ride'
p4444
aI2221
aa(lp4445
S"pony's"
p4446
aI2222
aa(lp4447
S'ringing'
p4448
aI2223
aa(lp4449
S'bells'
p4450
aI2224
aa(lp4451
S'allowed'
p4452
aI2225
aa(lp4453
S'tiring'
p4454
aI2226
aa(lp4455
S'field.'
p4456
aI2227
aa(lp4457
S'shaken'
p4458
aI2228
aa(lp4459
S'peaceful'
p4460
aI2229
aa(lp4461
S'reflected'
p4462
aI2230
aa(lp4463
S'poor'
p4464
aI2231
aa(lp4465
S'snakes'
p4466
aI2232
aa(lp4467
S'mice'
p4468
aI2233
aa(lp4469
S'sail'
p4470
aI2234
aa(lp4471
S"boat's"
p4472
aI2235
aa(lp4473
S'quietly'
p4474
aI2236
aa(lp4475
S'desk'
p4476
aI2237
aa(lp4477
S'wrapping'
p4478
aI2238
aa(lp4479
S'areas'
p4480
aI2239
aa(lp4481
S'piecing'
p4482
aI2240
aa(lp4483
S'handed'
p4484
aI2241
aa(lp4485
S'tanking'
p4486
aI2242
aa(lp4487
S'receiving'
p4488
aI2243
aa(lp4489
S'freeing'
p4490
aI2244
aa(lp4491
S'cane'
p4492
aI2245
aa(lp4493
S'Bread'
p4494
aI2246
aa(lp4495
S'amalgamating'
p4496
aI2247
aa(lp4497
S'stopped'
p4498
aI2248
aa(lp4499
S'bored'
p4500
aI2249
aa(lp4501
S'drink'
p4502
aI2250
aa(lp4503
S'squeezed'
p4504
aI2251
aa(lp4505
S'trekking'
p4506
aI2252
aa(lp4507
S'flooring'
p4508
aI2253
aa(lp4509
S'athletically'
p4510
aI2254
aa(lp4511
S'devouring'
p4512
aI2255
aa(lp4513
S'olives'
p4514
aI2256
aa(lp4515
S'hurriedly'
p4516
aI2257
aa(lp4517
S'TV'
p4518
aI2258
aa(lp4519
S'beautifully'
p4520
aI2259
aa(lp4521
S'climb'
p4522
aI2260
aa(lp4523
S'before'
p4524
aI2261
aa(lp4525
S'cuts'
p4526
aI2262
aa(lp4527
S'screaming'
p4528
aI2263
aa(lp4529
S'unprotective'
p4530
aI2264
aa(lp4531
S'ship'
p4532
aI2265
aa(lp4533
S'it.'
p4534
aI2266
aa(lp4535
S'stretching'
p4536
aI2267
aa(lp4537
S'guitarist'
p4538
aI2268
aa(lp4539
S'joyful'
p4540
aI2269
aa(lp4541
S'uncomfortable'
p4542
aI2270
aa(lp4543
S'eat'
p4544
aI2271
aa(lp4545
S'customers'
p4546
aI2272
aa(lp4547
S'air,'
p4548
aI2273
aa(lp4549
S'Masked'
p4550
aI2274
aa(lp4551
S'dunks'
p4552
aI2275
aa(lp4553
S'dunked'
p4554
aI2276
aa(lp4555
S'shown'
p4556
aI2277
aa(lp4557
S'roping'
p4558
aI2278
aa(lp4559
S'stars'
p4560
aI2279
aa(lp4561
S'look'
p4562
aI2280
aa(lp4563
S'guitars'
p4564
aI2281
aa(lp4565
S'tackle'
p4566
aI2282
aa(lp4567
S'sand,'
p4568
aI2283
aa(lp4569
S'onlookers'
p4570
aI2284
aa(lp4571
S'European'
p4572
aI2285
aa(lp4573
S'while'
p4574
aI2286
aa(lp4575
S'pristine'
p4576
aI2287
aa(lp4577
S'stunts'
p4578
aI2288
aa(lp4579
S'circular'
p4580
aI2289
aa(lp4581
S'suite'
p4582
aI2290
aa(lp4583
S'guide'
p4584
aI2291
aa(lp4585
S'sedan'
p4586
aI2292
aa(lp4587
S'cramped'
p4588
aI2293
aa(lp4589
S'tattooed'
p4590
aI2294
aa(lp4591
S'tools'
p4592
aI2295
aa(lp4593
S'dying'
p4594
aI2296
aa(lp4595
S'rubber'
p4596
aI2297
aa(lp4597
S'courageous'
p4598
aI2298
aa(lp4599
S'motorcycle.'
p4600
aI2299
aa(lp4601
S'done'
p4602
aI2300
aa(lp4603
S'filming'
p4604
aI2301
aa(lp4605
S'barren,'
p4606
aI2302
aa(lp4607
S'Not'
p4608
aI2303
aa(lp4609
S'pigtails'
p4610
aI2304
aa(lp4611
S'vertical,'
p4612
aI2305
aa(lp4613
S'depicting'
p4614
aI2306
aa(lp4615
S'snap'
p4616
aI2307
aa(lp4617
S'studied'
p4618
aI2308
aa(lp4619
S'nothing'
p4620
aI2309
aa(lp4621
S'pine'
p4622
aI2310
aa(lp4623
S'descending'
p4624
aI2311
aa(lp4625
S'effortlessly'
p4626
aI2312
aa(lp4627
S'rescues'
p4628
aI2313
aa(lp4629
S'mothers'
p4630
aI2314
aa(lp4631
S'necklace'
p4632
aI2315
aa(lp4633
S'apparel'
p4634
aI2316
aa(lp4635
S'rocker'
p4636
aI2317
aa(lp4637
S'quitting'
p4638
aI2318
aa(lp4639
S'barks'
p4640
aI2319
aa(lp4641
S'you'
p4642
aI2320
aa(lp4643
S'cannot'
p4644
aI2321
aa(lp4645
S'motionlessly'
p4646
aI2322
aa(lp4647
S'crowd,'
p4648
aI2323
aa(lp4649
S'uninterestedly'
p4650
aI2324
aa(lp4651
S'uphill'
p4652
aI2325
aa(lp4653
S'benches'
p4654
aI2326
aa(lp4655
S'lead'
p4656
aI2327
aa(lp4657
S'bringing'
p4658
aI2328
aa(lp4659
S'rear'
p4660
aI2329
aa(lp4661
S'pleasantly'
p4662
aI2330
aa(lp4663
S'relaxed'
p4664
aI2331
aa(lp4665
S'arms,'
p4666
aI2332
aa(lp4667
S'home'
p4668
aI2333
aa(lp4669
S'priest'
p4670
aI2334
aa(lp4671
S'marry'
p4672
aI2335
aa(lp4673
S'leapt'
p4674
aI2336
aa(lp4675
S'spots'
p4676
aI2337
aa(lp4677
S'guarded'
p4678
aI2338
aa(lp4679
S'surrounding'
p4680
aI2339
aa(lp4681
S'dune'
p4682
aI2340
aa(lp4683
S'yellow,'
p4684
aI2341
aa(lp4685
S'delightedly'
p4686
aI2342
aa(lp4687
S'gamer'
p4688
aI2343
aa(lp4689
S'bricks,'
p4690
aI2344
aa(lp4691
S'healthy'
p4692
aI2345
aa(lp4693
S'Music'
p4694
aI2346
aa(lp4695
S'covering'
p4696
aI2347
aa(lp4697
S'sit'
p4698
aI2348
aa(lp4699
S'carried'
p4700
aI2349
aa(lp4701
S'comfortable'
p4702
aI2350
aa(lp4703
S'discussion'
p4704
aI2351
aa(lp4705
S'spotting'
p4706
aI2352
aa(lp4707
S'person,'
p4708
aI2353
aa(lp4709
S'bike,'
p4710
aI2354
aa(lp4711
S'boardwalk'
p4712
aI2355
aa(lp4713
S'photographer'
p4714
aI2356
aa(lp4715
S'soft'
p4716
aI2357
aa(lp4717
S'frowning'
p4718
aI2358
aa(lp4719
S'proudly'
p4720
aI2359
aa(lp4721
S'likes'
p4722
aI2360
aa(lp4723
S'teenagers'
p4724
aI2361
aa(lp4725
S'bare-chested'
p4726
aI2362
aa(lp4727
S'removed'
p4728
aI2363
aa(lp4729
S'striping'
p4730
aI2364
aa(lp4731
S'dad'
p4732
aI2365
aa(lp4733
S'spouting'
p4734
aI2366
aa(lp4735
S't-shirt,'
p4736
aI2367
aa(lp4737
S'boredom'
p4738
aI2368
aa(lp4739
S'swings'
p4740
aI2369
aa(lp4741
S'exciting'
p4742
aI2370
aa(lp4743
S'weather'
p4744
aI2371
aa(lp4745
S'fluorescent'
p4746
aI2372
aa(lp4747
S'spotlight'
p4748
aI2373
aatRp4749
.