(dp1
S'verbose'
p2
I00
sS'decoder'
p3
S'lstm'
p4
sS'decay_c'
p5
F0
sS'patience'
p6
I3
sS'max_epochs'
p7
I5000
sS'dispFreq'
p8
I10
sS'test_datasets'
p9
(lp10
S'../../data/word_sequence/premise_SICK_test_annotated.txt.tok'
p11
aS'../../data/word_sequence/hypothesis_SICK_test_annotated.txt.tok'
p12
aS'../../data/word_sequence/label_SICK_test_annotated.txt'
p13
asS'clip_c'
p14
F10
sS'saveto'
p15
S'./sent_enc_nli.npz'
p16
sS'valid_batch_size'
p17
I32
sS'n_words'
p18
I2260
sS'optimizer'
p19
S'adadelta'
p20
sS'validFreq'
p21
I1000
sS'dictionary'
p22
S'../../data/word_sequence/vocab_cased.pkl'
p23
sS'batch_size'
p24
I32
sS'encoder'
p25
g4
sS'lrate'
p26
F0.00040000000000000002
sS'valid_datasets'
p27
(lp28
S'../../data/word_sequence/premise_SICK_trial.txt.tok'
p29
aS'../../data/word_sequence/hypothesis_SICK_trial.txt.tok'
p30
aS'../../data/word_sequence/label_SICK_trial.txt'
p31
asS'dim'
p32
I300
sS'use_dropout'
p33
I01
sS'datasets'
p34
(lp35
S'../../data/word_sequence/premise_SICK_train.txt.tok'
p36
aS'../../data/word_sequence/hypothesis_SICK_train.txt.tok'
p37
aS'../../data/word_sequence/label_SICK_train.txt'
p38
asS'dim_word'
p39
I300
sS'reload_'
p40
I00
sS'maxlen'
p41
I100
sS'finish_after'
p42
I10000000
sS'embedding'
p43
S''
sS'saveFreq'
p44
I1000
s.