(dp1
S'verbose'
p2
I00
sS'n_words'
p3
I2260
sS'decay_c'
p4
F0
sS'patience'
p5
I3
sS'max_epochs'
p6
I5000
sS'dispFreq'
p7
I10
sS'test_datasets'
p8
(lp9
S'../../data/word_sequence/premise_SICK_test_annotated.txt.tok'
p10
aS'../../data/word_sequence/hypothesis_SICK_test_annotated.txt.tok'
p11
aS'../../data/word_sequence/label_SICK_test_annotated.txt'
p12
asS'finish_after'
p13
I10000000
sS'clip_c'
p14
F10
sS'saveto'
p15
S'./sent_enc_nli.npz'
p16
sS'valid_batch_size'
p17
I32
sS'optimizer'
p18
S'adadelta'
p19
sS'validFreq'
p20
I1000
sS'dictionary'
p21
S'../../data/word_sequence/vocab_cased.pkl'
p22
sS'batch_size'
p23
I32
sS'encoder'
p24
S'lstm'
p25
sS'lrate'
p26
F0.00040000000000000002
sS'valid_datasets'
p27
(lp28
S'../../data/word_sequence/premise_SICK_trial.txt.tok'
p29
aS'../../data/word_sequence/hypothesis_SICK_trial.txt.tok'
p30
aS'../../data/word_sequence/label_SICK_trial.txt'
p31
asS'dim'
p32
I300
sS'use_dropout'
p33
I01
sS'datasets'
p34
(lp35
S'../../data/word_sequence/premise_SICK_train.txt.tok'
p36
aS'../../data/word_sequence/hypothesis_SICK_train.txt.tok'
p37
aS'../../data/word_sequence/label_SICK_train.txt'
p38
asS'dim_word'
p39
I300
sS'saveFreq'
p40
I1000
sS'maxlen'
p41
I100
sS'decoder'
p42
g25
sS'embedding'
p43
S''
sS'reload_'
p44
I00
s.